(lp0
VSBI ATM
p1
aVState Bank of India ATM
p2
aVHDFC ATM
p3
aVThe Bharat Cooperative Bank Mumbai Ltd
p4
aVBharat Cooperative Bank Mumbai
p5
aVIndian Bank ATM
p6
aVIDBI ATM
p7
aVCorporation Bank ATM
p8
aVCorporation Bank ATM
p9
aVHDFC ATM
p10
aVHDFC ATM
p11
aVSBI ATM
p12
aVState Bank of India ATM
p13
aVAxis Bank ATM
p14
aVAxis Bank ATM
p15
aVSVC Bank ATM
p16
aVPNB ATM
p17
aVShamrao Vithal Cooperative Bank ATM
p18
aVKotak Mahindra ATM
p19
aVKVB ATM
p20
aVKarur Vysya ATM
p21
aVFedBank ATM
p22
aVFederal Bank ATM
p23
aVJanatha Seva Cooperative Bank Ltd
p24
aVJanatha Seva Cooperative Bank Mahalakshmipura Branch
p25
aVICICI ATM
p26
aVThe Sirsi Urban Sahakari Bank Ltd
p27
aVSirsi Urban Sahakari Bank West Of Chord Branch
p28
aVDevelopment Credit Bank ATM
p29
aVDCB Bank ATM
p30
aVAxis Bank ATM
p31
aVKotak Mahindra ATM
p32
aVICICI ATM
p33
aVUnion Bank of India ATM
p34
aVVijaya Bank ATM
p35
aVLVB ATM
p36
aVLakshmi Vilas Bank ATM
p37
aVSBI ATM
p38
aVState Bank of India ATM
p39
aVCanara Bank ATM
p40
aVFedBank ATM
p41
aVFederal Bank ATM
p42
aVMoneyplant ATM
p43
aVKarnataka Bank ATM
p44
aVIndian Bank ATM
p45
aVUnion Bank of India ATM
p46
aVHDFC ATM
p47
aVSBM ATM
p48
aVState Bank of Mysore ATM
p49
aVCanara Bank ATM
p50
aVSBI ATM
p51
aVState Bank of India ATM
p52
aVSouth Indian Bank ATM
p53
aVSouth Indian Bank ATM
p54
aVSBM ATM
p55
aVState Bank of Mysore ATM
p56
aVIOB ATM
p57
aVIndian Overseas Bank ATM
p58
aVIndian Bank ATM
p59
aVDhanalakshmi Bank
p60
aVDhanlaxmiBank
p61
aVDhanlaxmi Bank
p62
aVLVB ATM
p63
aVLakshmi Vilas Bank ATM
p64
aVDevelopment Credit Bank ATM
p65
aVDCB Bank ATM
p66
aVHDFC ATM
p67
aVIndus Ind Bank
p68
aVIndusInd Bank
p69
aVCanara Bank ATM
p70
aVCanara Bank ATM
p71
aVCanara Bank ATM
p72
aVAxis Bank ATM
p73
aVHDFC ATM
p74
aVICICI ATM
p75
aVIndian Bank ATM
p76
aVState Bank of Mysore ATM
p77
aVSBI ATM
p78
aVState Bank of India ATM
p79
aVSBT ATM
p80
aVState Bank of Travancore ATM
p81
aVFedBank ATM
p82
aVFederal Bank ATM
p83
aVKarnataka State Cooperative Apex Bank
p84
aVICICI ATM
p85
aVKVB ATM
p86
aVKarur Vysya ATM
p87
aVICICI ATM
p88
aVLVB ATM
p89
aVLakshmi Vilas Bank ATM
p90
aVICICI ATM
p91
aVSBI ATM
p92
aVState Bank of India ATM
p93
aVSri Sudha Cooperative Bank Ltd
p94
aVSri Sudha Cooperation Bank
p95
aVSri Sudha Cooperative Bank
p96
aVHDFC ATM
p97
aVING Vysya Bank ATM
p98
aVKotak Mahindra ATM
p99
aVHDFC ATM
p100
aVUnion Bank of India ATM
p101
aVDhanalakshmi Bank
p102
aVDhanlaxmiBank
p103
aVDhanlaxmi Bank
p104
aVUnion Bank of India ATM
p105
aVCiti Bank ATM
p106
aVCitibank ATM
p107
aVCanara Bank ATM
p108
aVHDFC ATM
p109
aVAndhra Bank ATM
p110
aVHDFC ATM
p111
aVFedBank ATM
p112
aVFederal Bank ATM
p113
aVAxis Bank ATM
p114
aVSBH ATM
p115
aVState Bank of Hyderabad ATM
p116
aVDevelopment Credit Bank
p117
aVDCB Bank MG Road Branch
p118
aVBOI
p119
aVBank of India Richmond Town Branch
p120
aVState Bank of India
p121
aVState Bank of Mysore Sahakarnagar Branch
p122
aVHDFC Bank KH Road Branch
p123
aVHDFC Bank Banashankari Branch
p124
aVHSBC Bank Basavanagudi Branch
p125
aVIndian Bank Electronics City Branch
p126
aVCiti Bank
p127
aVCitibank
p128
aVIndustrial Development Bank of India Ltd
p129
aVIDBI Bank Gandhinagar Branch
p130
aVSBM
p131
aVState Bank of Mysore Prashantha Nagar Branch
p132
aVSBI
p133
aVState Bank of India Byraveshwaranagar Branch
p134
aVAllahabad Bank Chamarajpet Branch
p135
aVState Bank of Mysore
p136
aVState Bank of Mysore
p137
aVState Bank of Mysore Yekahanka Branch
p138
aVICICI Bank OTC Road Branch
p139
aVOBC
p140
aVOriental Bank of Commerce Dasarahalli Branch
p141
aVICICI Bank Jayanagar
p142
aVICICI Bank Jayanagar 3rd Block Branch
p143
aVICICI Bank Indiranagar Branch
p144
aVMahaBank
p145
aVBank of Maharashtra Koramangala Branch
p146
aVICICI Bank Vijayanagar Branch
p147
aVOBC
p148
aVOBC Bank
p149
aVOriental Bank of Commerce Jayanagar 4th T Block Branch
p150
aVVision Express
p151
aVM M Sireesh Auto Pvt Ltd Service Centre
p152
aVMahindra And Mahindra Sireesh Auto Pvt Ltd Service
p153
aVMahindra   Mahindra Sireesh Auto Pvt Ltd Service Centre and Spare Parts
p154
aVEicher
p155
aVTVS Tristar TVS
p156
aVLakme
p157
aVLakme Studio
p158
aVNike
p159
aVAdidas
p160
aVNokia
p161
aVFlying Machine
p162
aVCat
p163
aVGini   Jony
p164
aVLee Cooper
p165
aVFabindia
p166
aVBridgestone
p167
aVSamsung
p168
aVAshok Leyland
p169
aVSlick Carz
p170
aVSBI ATM
p171
aVState Bank of India ATM
p172
aVVijaya Bank ATM
p173
aVHDFC ATM
p174
aVSyndicate Bank ATM
p175
aVCBI ATM
p176
aVCentral Bank of India ATM
p177
aVHDFC ATM
p178
aVCity Union Bank Ltd
p179
aVCity Union Bank Sulthanpet Branch
p180
aVAxis Bank ATM
p181
aVHDFC ATM
p182
aVHotel Industrialists Cooperative Bank Ltd
p183
aVHotel Industrialists Cooperative Bank
p184
aVLVB
p185
aVLakshmi Vilas Bank
p186
aVKarnataka Bank
p187
aVFedBank ATM
p188
aVFederal Bank ATM
p189
aVCanara Bank ATM
p190
aVSBI ATM
p191
aVState Bank of India ATM
p192
aVState Bank of Mysore ATM
p193
aVRepco Bank
p194
aVSBI ATM
p195
aVState Bank of India ATM
p196
aVHDFC ATM
p197
aVSBT ATM
p198
aVState Bank of Travancore ATM
p199
aVHDFC ATM
p200
aVSouth Indian Bank ATM
p201
aVLVB ATM
p202
aVLakshmi Vilas Bank ATM
p203
aVUnion Bank of India ATM
p204
aVICICI ATM
p205
aVIOB ATM
p206
aVIndian Overseas Bank ATM
p207
aVHDFC ATM
p208
aVCorporation Bank ATM
p209
aVAxis Bank ATM
p210
aVAxis Bank ATM
p211
aVSouth Indian Bank ATM
p212
aVHDFC ATM
p213
aVSyndicate Bank ATM
p214
aVICICI ATM
p215
aVIOB ATM
p216
aVIndian Overseas Bank ATM
p217
aVVijaya Bank ATM
p218
aVSBI ATM
p219
aVState Bank of India ATM
p220
aVKarnataka Bank ATM
p221
aVCanara Bank ATM
p222
aVHDFC ATM
p223
aVAllahabad Bank ATM
p224
aVCanara Bank ATM
p225
aVHDFC ATM
p226
aVPunjab   Sind Bank JC Road Branch
p227
aVCanara Bank ATM
p228
aVRBL Bank ATM
p229
aVRatnakar Bank ATM
p230
aVHDFC ATM
p231
aVDhanalakshmi Bank
p232
aVDhanlaxmiBank
p233
aVDhanlaxmi Bank
p234
aVSri Sudha Cooperative Bank Ltd
p235
aVSri Sudha Cooperative Bank
p236
aVCanara Bank ATM
p237
aVSCB ATM
p238
aVStandard Chartered ATM
p239
aVCanara Bank ATM
p240
aVKVB ATM
p241
aVKarur Vysya ATM
p242
aVThe Karnataka State Cooperative Apex Bank Ltd
p243
aVKarnataka State Cooperative Apex Bank Shivajinagar Branch
p244
aVOBC ATM
p245
aVMy Time ATM
p246
aVOriental Bank of Commerce ATM
p247
aVPNB ATM
p248
aVPunjab National Bank ATM
p249
aVLVB ATM
p250
aVLakshmi Vilas Bank ATM
p251
aVVijaya Bank ATM
p252
aVTumkur Grain Merchants Cooperative Bank Ltd
p253
aVTumkur Grain Merchants Cooperative Bank Jayanagar Branch
p254
aVSBI ATM
p255
aVState Bank of India ATM
p256
aVKarnataka Bank Netkallappa Circle Branch
p257
aVKarnataka Bank ATM
p258
aVHDFC ATM
p259
aVSyndicate Bank ATM
p260
aVSBI ATM
p261
aVState Bank of India ATM
p262
aVCanara Bank ATM
p263
aVJanatha Seva Cooperative Bank Ltd
p264
aVJanatha Seva Cooperative Bank
p265
aVKarnataka Bank Amarjyothinagar Branch
p266
aVKarnataka Rajya Kaigarika Vanijya Sahakara Bank
p267
aVNational Cooperative Bank
p268
aVCity Union Bank Ltd
p269
aVCity Union Bank
p270
aVRBS ATM
p271
aVRoyal Bank of Scotland ATM
p272
aVSCB ATM
p273
aVStandard Chartered ATM
p274
aVING Vysya Bank
p275
aVKotak Mahindra Bank
p276
aVICICI ATM
p277
aVNational Bank for Agricultural and Rural Development
p278
aVNABARD Bank
p279
aVVijaya Bank ATM
p280
aVUnion Bank of India ATM
p281
aVState Bank of Mysore
p282
aVAxis Bank ATM
p283
aVState Bank of Mysore ATM
p284
aVKarnataka Bank ATM
p285
aVIOB
p286
aVIndian Overseas Bank
p287
aVKarnataka Bank
p288
aVDena Bank ATM
p289
aVVijaya Bank ATM
p290
aVKVB ATM
p291
aVKarur Vysya ATM
p292
aVAndhra Bank ATM
p293
aVBOB ATM
p294
aVBank of Baroda ATM
p295
aVSyndicate Bank ATM
p296
aVICICI ATM
p297
aVCiti Bank ATM
p298
aVCitibank ATM
p299
aVCanara Bank ATM
p300
aVHDFC ATM
p301
aVVijaya Bank ATM
p302
aVCiti Bank
p303
aVCitibank
p304
aVCBI
p305
aVCentral Bank of India Peenya Branch
p306
aVCorporation Bank Ramachandra Complex RMV Extension 2nd Stage Branch
p307
aVCiti Bank
p308
aVCitibank
p309
aVCiti Bank
p310
aVCitibank
p311
aVCorporation Bank Padmanashanagar Branch
p312
aVCorporation Bank BTM Layout Branch
p313
aVHDFC Bank Wilson Garden Branch
p314
aVIndustrial Development Bank of India Ltd
p315
aVIDBI Bank RT Nagar Branch
p316
aVState Bank of Mysore
p317
aVING Vysya Bank
p318
aVKotak Mahindra Bank Jayanagar Branch
p319
aVCorporation Bank Ganganagar Branch
p320
aVCiti Bank ATM
p321
aVCitibank ATM
p322
aVPNB
p323
aVPunjab National Bank Frazer Town Branch
p324
aVPNB ATM
p325
aVPunjab National Bank ATM
p326
aVMoneyplant ATM
p327
aVKarnataka Bank ATM
p328
aVCBI ATM
p329
aVCentral Bank of India ATM
p330
aVKVB
p331
aVKarur Vysya Bank Rajaji Nagar Branch
p332
aVMalleswaram Cooperative Bank Ltd
p333
aVMalleswaram Cooperative Bank
p334
aVHDFC Bank Koramangala 4th B Block Branch
p335
aVHDFC ATM
p336
aVTumkur Grain Merchants Cooperative Bank Ltd
p337
aVTumkur Grain Merchants Cooperative Bank
p338
aVICICI Bank
p339
aVICICI Bank
p340
aVICICI Bank
p341
aVICICI Bank Koramangala Branch
p342
aVOBC
p343
aVOriental Bank of Commerce BTM Layout Branch
p344
aVICICI Bank
p345
aVMahaBank
p346
aVBank of Maharashtra
p347
aVFabindia
p348
aVToyota Nandi Toyota
p349
aVToyota Nandi Toyota Service and Spare Parts
p350
aVBajaj Khivraj Motors
p351
aVAirtel
p352
aVDTDC Courier
p353
aVDTDC Courier
p354
aVLakme Salon
p355
aVJK Tyres
p356
aVVolkswagen Das WeltAuto Elite Motors Pvt Ltd
p357
aVVolkswagen Das WeltAuto Bangalore
p358
aVAmanath Cooperative Bank Ltd
p359
aVAmanath Cooperative Bank
p360
aVCorporation Bank ATM
p361
aVPNB ATM
p362
aVPunjab National Bank ATM
p363
aVBOB ATM
p364
aVBank of Baroda ATM
p365
aVState Bank of Mysore ATM
p366
aVCanara Bank ATM
p367
aVBangalore City Cooperative Bank Ltd
p368
aVBangalore City Cooperative Bank
p369
aVHDFC ATM
p370
aVBOB ATM
p371
aVBank of Baroda ATM
p372
aVAndhra Bank ATM
p373
aVBOI ATM
p374
aVBank of India ATM
p375
aVCanara Bank ATM
p376
aVHDFC ATM
p377
aVCanara Bank ATM
p378
aVKarnataka Bank
p379
aVCiti Bank ATM
p380
aVCitibank ATM
p381
aVAndhra Bank ATM
p382
aVVijaya Bank ATM
p383
aVAxis Bank ATM
p384
aVSBI ATM
p385
aVState Bank of India ATM
p386
aVCanara Bank ATM
p387
aVCiti Bank ATM
p388
aVCitibank ATM
p389
aVAndhra Bank ATM
p390
aVCiti Bank ATM
p391
aVCitibank ATM
p392
aVUnion Bank of India ATM
p393
aVFedBank ATM
p394
aVFederal Bank ATM
p395
aVHDFC ATM
p396
aVSBI ATM
p397
aVState Bank of India ATM
p398
aVSBI ATM
p399
aVState Bank of India ATM
p400
aVAxis Bank ATM
p401
aVHDFC ATM
p402
aVSVC Bank ATM
p403
aVShamrao Vithal Cooperative Bank ATM
p404
aVCorp Bank ATM
p405
aVCorporation Bank ATM
p406
aVAxis Bank ATM
p407
aVICICI ATM
p408
aVPNB ATM
p409
aVPunjab National Bank ATM
p410
aVAxis Bank ATM
p411
aVJanatha Cooperative Bank Amarjyothinagar Branch
p412
aVHDFC ATM
p413
aVHDFC ATM
p414
aVUnion Bank of India ATM
p415
aVCanara Bank ATM
p416
aVAmanath Cooperative Bank Ltd
p417
aVAmanath Cooperative Bank
p418
aVAmanath Cooperative Bank Ltd
p419
aVAmanath Cooperative Bank
p420
aVCanara Bank ATM
p421
aVAxis Bank ATM
p422
aVDeutsche Bank ATM
p423
aVSBI ATM
p424
aVState Bank of India ATM
p425
aVSBI ATM
p426
aVState Bank of India ATM
p427
aVCBI
p428
aVCentral Bank of India
p429
aVBOI ATM
p430
aVBIO ATM
p431
aVBank of India ATM
p432
aVSBP
p433
aVState Bank of Patiala JP Nagar Branch
p434
aVSBP ATM
p435
aVState Bank of Patiala ATM
p436
aVCanara Bank ATM
p437
aVDevelopment Credit Bank ATM
p438
aVDCB Bank ATM
p439
aVAxis Bank ATM
p440
aVSri Guru Raghavendra Sahakari Bank
p441
aVIndus Ind Bank
p442
aVIndusInd Bank
p443
aVRBS ATM
p444
aVRoyal Bank of Scotland ATM
p445
aVHDFC ATM
p446
aVBOI ATM
p447
aVBank of India ATM
p448
aVCiti Bank ATM
p449
aVCitibank ATM
p450
aVCiti Bank ATM
p451
aVCitibank ATM
p452
aVKarnataka Bank
p453
aVCiti Bank ATM
p454
aVCitibank ATM
p455
aVCanara Bank ATM
p456
aVCiti Bank ATM
p457
aVCitibank ATM
p458
aVSBI ATM
p459
aVState Bank of India ATM
p460
aVSBI ATM
p461
aVState Bank of India ATM
p462
aVLVB
p463
aVLakshmi Vilas Bank
p464
aVKVB ATM
p465
aVKarur Vysya ATM
p466
aVHDFC ATM
p467
aVFedBank ATM
p468
aVFederal Bank ATM
p469
aVICICI ATM
p470
aVCiti Bank ATM
p471
aVCitibank ATM
p472
aVCanara Bank ATM
p473
aVHDFC ATM
p474
aVBOI ATM
p475
aVBank of India ATM
p476
aVAxis Bank ATM
p477
aVKarnataka Bank Nehru Nagar Branch
p478
aVSBI ATM
p479
aVState Bank of India ATM
p480
aVHDFC ATM
p481
aVState Bank of India ATM
p482
aVState Bank of Mysore ATM
p483
aVHDFC ATM
p484
aVAndhra Bank ATM
p485
aVAxis Bank ATM
p486
aVCanara Bank ATM
p487
aVPNB ATM
p488
aVPunjab National Bank ATM
p489
aVFedBank ATM
p490
aVFederal Bank ATM
p491
aVCorporation Bank ATM
p492
aVHDFC ATM
p493
aVPNB ATM
p494
aVPunjab National Bank ATM
p495
aVBOB ATM
p496
aVBank of Baroda ATM
p497
aVAm ex Bank
p498
aVAmex Bank
p499
aVAmerican Express Bank
p500
aVSBI ATM
p501
aVState Bank of India ATM
p502
aVCorporation Bank ATM
p503
aVDena Bank JC Road Branch
p504
aVSyndicate Bank RV Road Branch
p505
aVSyndicate Bank Wilson Garden Branch
p506
aVSBI
p507
aVState Bank of India Jayanagar Personal Banking Branch
p508
aVHDFC Bank BTM Layout Branch
p509
aVState Bank of Mysore
p510
aVState Bank of Mysore
p511
aVHDFC Bank MG Road Branch
p512
aVAxis Bank Vijaynagar Branch
p513
aVVijaya Bank Jalahalli Branch
p514
aVCBI
p515
aVCentral Bank of India CSI Branch
p516
aVState Bank of Mysore
p517
aVHDFC Bank Hennur Road Branch
p518
aVState Bank of Mysore
p519
aVState Bank of Mysore ATM
p520
aVBOB
p521
aVBank of Baroda Fraser Town Branch
p522
aVHDFC Bank Jakasandra Branch
p523
aVCorporation Bank Sadashiva Nagar Branch
p524
aVICICI ATM
p525
aVIOB
p526
aVIndian Overseas Bank
p527
aVCity Union Bank Ltd
p528
aVCity Union Bank
p529
aVCity Union Bank ATM
p530
aVICICI ATM
p531
aVUnion Bank of India ATM
p532
aVState Bank of Mysore
p533
aVState Bank of Mysore Gayathri Nagar Branch
p534
aVICICI Bank
p535
aVMahaBank
p536
aVBank of Maharashtra Chamarajpet Branch
p537
aVICICI Bank
p538
aVICICI Bank Jayanagar
p539
aVICICI Bank Jayanagar 7th Block Branch
p540
aVMahaBank
p541
aVBank of Maharashtra Mico Layout Branch
p542
aVICICI Bank
p543
aVUCB
p544
aVUnited Colors of Benetton
p545
aVRaymond
p546
aVBest Shop
p547
aVLG Shoppe
p548
aVMufti
p549
aVThe Time Factory
p550
aVTimex
p551
aVFirst Flight Courier
p552
aVDTDC Courier
p553
aVReebok
p554
aVMahaBank
p555
aVBank of Maharashtra
p556
aVBOM ATM
p557
aVMahaBank ATM
p558
aVBank of Maharashtra ATM
p559
aVBOM ATM
p560
aVMahaBank ATM
p561
aVBank of Maharashtra ATM
p562
aVBOM ATM
p563
aVMahaBank ATM
p564
aVBank of Maharashtra ATM
p565
aVSBI ATM
p566
aVState Bank of India ATM
p567
aVSBI ATM
p568
aVState Bank of India ATM
p569
aVHDFC ATM
p570
aVICICI ATM
p571
aVAxis Bank ATM
p572
aVCorporation Bank ATM
p573
aVDhanalakshmi Bank
p574
aVDhanlaxmiBank
p575
aVDhanlaxmi Bank
p576
aVState Bank of Mysore ATM
p577
aVCanara Bank ATM
p578
aVCanara Bank ATM
p579
aVVijaya Bank ATM
p580
aVLord Krishna Bank Ltd
p581
aVLord Krishna Bank
p582
aVDhanalakshmi Bank
p583
aVDhanlaxmiBank
p584
aVDhanlaxmi Bank
p585
aVUnion Bank of India ATM
p586
aVCanara Bank ATM
p587
aVSyndicate Bank ATM
p588
aVCitizen Cooperative Bank Ltd
p589
aVCitizen Cooperative Bank
p590
aVSBI ATM
p591
aVState Bank of India ATM
p592
aVIOB ATM
p593
aVIndian Overseas Bank ATM
p594
aVHDFC ATM
p595
aVState Bank of Mysore ATM
p596
aVCanara Bank ATM
p597
aVState Bank of Mysore ATM
p598
aVCorporation Bank ATM
p599
aVAndhra Bank ATM
p600
aVICICI ATM
p601
aVAndhra Bank ATM
p602
aVCanara Bank ATM
p603
aVCanara Bank ATM
p604
aVCiti Bank ATM
p605
aVCitibank ATM
p606
aVHDFC ATM
p607
aVHSBC ATM
p608
aVICICI ATM
p609
aVING Vysya Bank ATM
p610
aVKotak Mahindra ATM
p611
aVKotak Mahindra ATM
p612
aVKarnataka Bank ATM
p613
aVAshokamr Cooperative Bank Ltd
p614
aVAshokamr Cooperative Bank
p615
aVCanara Bank ATM
p616
aVSBI ATM
p617
aVState Bank of India ATM
p618
aVMoneyplant ATM
p619
aVKarnataka Bank ATM
p620
aVAxis Bank ATM
p621
aVIndian Bank ATM
p622
aVCanara Bank ATM
p623
aVSBI ATM
p624
aVState Bank of India ATM
p625
aVCBI ATM
p626
aVCentral Bank of India ATM
p627
aVSCB ATM
p628
aVStandard Chartered ATM
p629
aVIndian Bank ATM
p630
aVVijaya Bank ATM
p631
aVCity Union Bank ATM
p632
aVPNB ATM
p633
aVPunjab National Bank ATM
p634
aVSri Sudha Cooperative Bank Ltd
p635
aVSri Sudha Cooperative Bank
p636
aVBhavasara Kshatriya Cooperative Bank
p637
aVAxis Bank ATM
p638
aVDhanalakshmi Bank
p639
aVDhanlaxmiBank
p640
aVDhanlaxmi Bank
p641
aVIOB ATM
p642
aVIndian Overseas Bank ATM
p643
aVKotak Mahindra ATM
p644
aVLVB ATM
p645
aVLakshmi Vilas Bank ATM
p646
aVICICI ATM
p647
aVCanara Bank ATM
p648
aVCanara Bank ATM
p649
aVHDFC ATM
p650
aVIOB ATM
p651
aVIndian Overseas Bank ATM
p652
aVSBI ATM
p653
aVState Bank of India ATM
p654
aVSBI ATM
p655
aVState Bank of India ATM
p656
aVCanara Bank ATM
p657
aVHDFC ATM
p658
aVCorporation Bank ATM
p659
aVSBI ATM
p660
aVState Bank of India ATM
p661
aVCiti Bank ATM
p662
aVCitibank ATM
p663
aVSBI ATM
p664
aVState Bank of India ATM
p665
aVDeutsche Bank
p666
aVKotak Mahindra ATM
p667
aVState Bank of Mysore ATM
p668
aVSBI ATM
p669
aVState Bank of India ATM
p670
aVSBI ATM
p671
aVState Bank of India ATM
p672
aVSyndicate Bank ATM
p673
aVLVB
p674
aVLakshmi Vilas Bank Service Branch
p675
aVLVB ATM
p676
aVLakshmi Vilas Bank ATM
p677
aVKarnataka Bank
p678
aVUCO Bank ATM
p679
aVAxis Bank ATM
p680
aVCanara Bank ATM
p681
aVIOB ATM
p682
aVIndian Overseas Bank ATM
p683
aVCorporation Bank ATM
p684
aVCanara Bank ATM
p685
aVTMB ATM
p686
aVTamilnad Mercantile Bank ATM
p687
aVAxis Bank ATM
p688
aVHDFC ATM
p689
aVCorporation Bank ATM
p690
aVHDFC ATM
p691
aVHDFC ATM
p692
aVICICI ATM
p693
aVICICI ATM
p694
aVICICI ATM
p695
aVICICI ATM
p696
aVSBI ATM
p697
aVState Bank of India ATM
p698
aVIDBI ATM
p699
aVAxis Bank ATM
p700
aVICICI ATM
p701
aVICICI ATM
p702
aVICICI ATM
p703
aVHDFC ATM
p704
aVUCO Bank Jayanagar Branch
p705
aVSouth Indian Bank Christ University Branch
p706
aVCorporation Bank Jalabhavan Branch
p707
aVAxis Bank Yelahanka Branch
p708
aVSouth Indian Bank
p709
aVJ K Bank
p710
aVJammu   Kashmir Bank
p711
aVIndustrial Development Bank of India Ltd
p712
aVIDBI Bank
p713
aVHDFC Bank Seshadripuram Branch
p714
aVHDFC Bank St Germain High School Branch
p715
aVJ K Bank
p716
aVJammu   Kashmir Bank
p717
aVBOI
p718
aVBank of India Rajaji Nagar Branch
p719
aVCBI
p720
aVCentral Bank of India Central Mathikere Branch
p721
aVUnion Bank of India Union Industrial Branch
p722
aVAllahabad Bank Kalyan Nagar Branch
p723
aVDena Bank Jayanagar
p724
aVDena Bank Jayanagar Branch
p725
aVIndian Bank Jayanagar Branch
p726
aVSBI
p727
aVState Bank of India Rajaji Nagar E Block Branch
p728
aVICICI ATM
p729
aVICICI ATM
p730
aVDevelopment Credit Bank ATM
p731
aVDCB Bank ATM
p732
aVICICI ATM
p733
aVUnion Bank of India ATM
p734
aVHDFC ATM
p735
aVKotak Mahindra ATM
p736
aVKarnataka Bank ATM
p737
aVHDFC ATM
p738
aVState Bank of Mysore Hulimavu Branch
p739
aVMahaBank
p740
aVBank of Maharashtra
p741
aVICICI Bank
p742
aVIndigo Nation
p743
aVKajaria
p744
aVHP World
p745
aVEureka Forbes
p746
aVChery Electronics
p747
aVPhilips
p748
aVStaples
p749
aVDTDC Courier
p750
aVFastrack
p751
aVBOM ATM
p752
aVMahaBank ATM
p753
aVBank of Maharashtra ATM
p754
aVBOM ATM
p755
aVMahaBank ATM
p756
aVBank of Maharashtra ATM
p757
aVBOM ATM
p758
aVMahaBank ATM
p759
aVBank of Maharashtra ATM
p760
aVBOI ATM
p761
aVBank of India ATM
p762
aVIndian Bank ATM
p763
aVSBI ATM
p764
aVState Bank of India ATM
p765
aVSBI ATM
p766
aVState Bank of India ATM
p767
aVICICI ATM
p768
aVICICI ATM
p769
aVICICI ATM
p770
aVICICI ATM
p771
aVCanara Bank ATM
p772
aVSBI ATM
p773
aVState Bank of India ATM
p774
aVAxis Bank ATM
p775
aVSBI ATM
p776
aVState Bank of India ATM
p777
aVKarnataka Bank Malleshwaram Branch
p778
aVCanara Bank ATM
p779
aVBank
p780
aVSouth Indian Bank ATM
p781
aVState Bank of Mysore ATM
p782
aVDena Bank ATM
p783
aVSBBJ
p784
aVState Bank of Bikaner and Jaipur
p785
aVState Bank of Bikaner   Jaipur
p786
aVLVB ATM
p787
aVLakshmi Vilas Bank ATM
p788
aVHDFC ATM
p789
aVICICI ATM
p790
aVSBI ATM
p791
aVState Bank of India ATM
p792
aVIndian Bank ATM
p793
aVCity Union Bank ATM
p794
aVSVC Bank
p795
aVShamrao Vithal Cooperative Bank
p796
aVSBM ATM
p797
aVState Bank of Mysore ATM
p798
aVCanara Bank ATM
p799
aVHDFC ATM
p800
aVAxis Bank ATM
p801
aVICICI ATM
p802
aVCorp Bank ATM
p803
aVCorporation Bank ATM
p804
aVHDFC ATM
p805
aVSouth Indian Bank ATM
p806
aVKarnataka Bank ATM
p807
aVAxis Bank ATM
p808
aVCanara Bank ATM
p809
aVHDFC ATM
p810
aVLVB ATM
p811
aVLakshmi Vilas Bank ATM
p812
aVSBI ATM
p813
aVState Bank of India ATM
p814
aVUnion Bank of India ATM
p815
aVKarnataka Bank ATM
p816
aVKotak Mahindra ATM
p817
aVAxis Bank ATM
p818
aVVijaya Bank ATM
p819
aVCiti Bank ATM
p820
aVCitibank ATM
p821
aVThe Hanumanthanagar Cooperative Bank Ltd
p822
aVHanumanthanagar Cooperative Bank Sarakki Branch
p823
aVUCO Bank ATM
p824
aVPNB ATM
p825
aVPunjab National Bank ATM
p826
aVSBM ATM
p827
aVState Bank of Mysore ATM
p828
aVIDBI ATM
p829
aVFedBank ATM
p830
aVFederal Bank ATM
p831
aVAxis Bank ATM
p832
aVHDFC ATM
p833
aVSBI ATM
p834
aVState Bank of India ATM
p835
aVLVB
p836
aVLakshmi Vilas Bank
p837
aVKVB ATM
p838
aVKarur Vysya ATM
p839
aVSyndicate Bank ATM
p840
aVSBI ATM
p841
aVState Bank of India ATM
p842
aVSBI ATM
p843
aVState Bank of India ATM
p844
aVSyndicate Bank ATM
p845
aVState Bank of Mysore ATM
p846
aVBOI ATM
p847
aVBank of India ATM
p848
aVUK Bank ATM
p849
aVUCO Bank ATM
p850
aVAndhra Bank ATM
p851
aVCanara Bank ATM
p852
aVKarnataka Bank
p853
aVSri Subramanya Cooperative Bank
p854
aVKarnataka Bank
p855
aVUCO Bank ATM
p856
aVIOB ATM
p857
aVInsta Cash
p858
aVIndian Overseas Bank ATM
p859
aVVijaya Bank ATM
p860
aVCiti Bank ATM
p861
aVCitibank ATM
p862
aVSBI ATM
p863
aVState Bank of India ATM
p864
aVCanara Bank
p865
aVCanara Bank ATM
p866
aVCanara Bank ATM
p867
aVICICI ATM
p868
aVBOI ATM
p869
aVBank of India ATM
p870
aVHDFC ATM
p871
aVSBI ATM
p872
aVState Bank of India ATM
p873
aVING Vysya Bank ATM
p874
aVKotak Mahindra ATM
p875
aVICICI ATM
p876
aVState Bank of Mysore ATM
p877
aVFedBank ATM
p878
aVFederal Bank ATM
p879
aVSyndicate Bank ATM
p880
aVBOA
p881
aVBank of America
p882
aVDeutsche Bank
p883
aVCanara Bank ATM
p884
aVAxis Bank ATM
p885
aVAxis Bank ATM
p886
aVAxis Bank ATM
p887
aVBOB ATM
p888
aVBank of Baroda ATM
p889
aVCanara Bank ATM
p890
aVHDFC Bank Bannerghatta Road Branch
p891
aVIndian Bank Basavanagudi Branch
p892
aVIOB
p893
aVIndian Overseas Bank MID Corporate Branch
p894
aVSBI
p895
aVState Bank of India Bangalore City Branch
p896
aVState Bank of Mysore Jayanagar 4th Block Branch
p897
aVFedBank
p898
aVFederal Bank Jayanagar Branch
p899
aVSBI
p900
aVState Bank of India Banashankari 2nd Stage Branch
p901
aVIOB
p902
aVIndian Overseas Bank Banashankari 2nd Stage Branch
p903
aVSBI
p904
aVState Bank of India Bengaluru Fort Branch
p905
aVState Bank of Mysore Ramamurthynagar Branch
p906
aVSBI
p907
aVState Bank of India Kasturinagar Branch
p908
aVAndhra Bank Banswadi Branch
p909
aVState Bank of Mysore Attibele Branch
p910
aVTMB
p911
aVTamilnad Mercantile Bank
p912
aVTMB
p913
aVTamilnad Mercantile Bank
p914
aVState Bank of Mysore Sarakki Branch
p915
aVBank
p916
aVState Bank of Mysore Bilekahalli Branch
p917
aVVijaya Bank Basaveshwar Nagar Branch
p918
aVSBI ATM
p919
aVState Bank of India ATM
p920
aVRBS ATM
p921
aVRoyal Bank of Scotland ATM
p922
aVCorporation Bank ATM
p923
aVSBI ATM
p924
aVState Bank of India ATM
p925
aVCorporation Bank Magadi Road Byadarahalli Branch
p926
aVICICI ATM
p927
aVCiti Bank ATM
p928
aVCitibank ATM
p929
aVMahaBank
p930
aVBank of Maharashtra Basavanagudh Branch
p931
aVSBH
p932
aVState Bank of Hyderabad Banashankari Branch
p933
aVSBM
p934
aVState Bank of Mysore Vijayanagar Branch
p935
aVRBL Bank
p936
aVRatnakar Bank Koramangala Branch
p937
aVCiti Bank ATM
p938
aVCitibank ATM
p939
aVKVB ATM
p940
aVKarur Vysya ATM
p941
aVKotak Mahindra ATM
p942
aVPeter England
p943
aVCelio
p944
aVPride Motors
p945
aVAshok Leyland Pride Motors
p946
aVSamsung
p947
aVDTDC Courier
p948
aVLG
p949
aVBajaj Amba Bajaj
p950
aVReebok
p951
aVICICI ATM
p952
aVICICI ATM
p953
aVICICI ATM
p954
aVICICI ATM
p955
aVICICI ATM
p956
aVICICI ATM
p957
aVICICI ATM
p958
aVAxis Bank ATM
p959
aVAxis Bank ATM
p960
aVAxis Bank ATM
p961
aVCanara Bank ATM
p962
aVCiti Bank ATM
p963
aVCitibank ATM
p964
aVICICI ATM
p965
aVICICI ATM
p966
aVICICI ATM
p967
aVICICI ATM
p968
aVICICI ATM
p969
aVICICI ATM
p970
aVHDFC ATM
p971
aVKarnataka Bank
p972
aVKarnataka Bank Sahakarnagar Branch
p973
aVICICI ATM
p974
aVCiti Bank ATM
p975
aVCitibank ATM
p976
aVAxis Bank ATM
p977
aVCanara Bank ATM
p978
aVAndhra Bank ATM
p979
aVHDFC ATM
p980
aVAllahabad Bank ATM
p981
aVCanara Bank ATM
p982
aVSCB ATM
p983
aVStandard Chartered ATM
p984
aVHDFC ATM
p985
aVSBI ATM
p986
aVState Bank of India ATM
p987
aVHDFC ATM
p988
aVUnion Bank of India ATM
p989
aVCiti Bank
p990
aVCitibank GK Vale Branch
p991
aVSBI ATM
p992
aVState Bank of India ATM
p993
aVSree Anjaneya Cooperative Bank Ltd
p994
aVSree Anjaneya Cooperative Bank
p995
aVCanara Bank ATM
p996
aVDevelopment Credit Bank ATM
p997
aVDCB Bank ATM
p998
aVHDFC ATM
p999
aVUnion Bank of India ATM
p1000
aVAxis Bank ATM
p1001
aVSir M Visvesvaraya Cooperative Bank Ltd
p1002
aVSir M Visvesvaraya Cooperative Bank Vijayanagar Branch
p1003
aVICICI ATM
p1004
aVThe Hanumanthanagar Cooperative Bank Ltd
p1005
aVHanumanthanagar Cooperative Bank
p1006
aVHDFC ATM
p1007
aVKarnataka Bank ATM
p1008
aVICICI ATM
p1009
aVHDFC ATM
p1010
aVAxis Bank ATM
p1011
aVICICI ATM
p1012
aVKarnataka Bank ATM
p1013
aVCity Union Bank ATM
p1014
aVHDFC ATM
p1015
aVUnion Bank of India ATM
p1016
aVCosmos Bank
p1017
aVCosmos Cooperative Bank ATM
p1018
aVSBI ATM
p1019
aVState Bank of India ATM
p1020
aVSBI ATM
p1021
aVState Bank of India ATM
p1022
aVLVB ATM
p1023
aVLakshmi Vilas Bank ATM
p1024
aVSBI ATM
p1025
aVState Bank of India ATM
p1026
aVAxis Bank ATM
p1027
aVSBI ATM
p1028
aVState Bank of India ATM
p1029
aVCanara Bank ATM
p1030
aVAmanath Cooperative Bank Ltd
p1031
aVAmanath Cooperative Bank
p1032
aVHDFC ATM
p1033
aVSouth Indian Bank ATM
p1034
aVCanara Bank ATM
p1035
aVOBC ATM
p1036
aVOBC Bank ATM
p1037
aVOriental Bank of Commerce ATM
p1038
aVUnion Bank of India ATM
p1039
aVKarnataka Bank
p1040
aVCiti Bank ATM
p1041
aVCitibank ATM
p1042
aVHDFC ATM
p1043
aVFedBank ATM
p1044
aVFederal Bank ATM
p1045
aVAmanath Cooperative Bank Ltd
p1046
aVAmanath Cooperative Bank Brigade Road Branch
p1047
aVUnion Bank of India ATM
p1048
aVAndhra Bank ATM
p1049
aVState Bank of Mysore ATM
p1050
aVCanara Bank ATM
p1051
aVIndus Ind Bank
p1052
aVIndusInd Bank
p1053
aVICICI ATM
p1054
aVSBI ATM
p1055
aVState Bank of India ATM
p1056
aVCanara Bank ATM
p1057
aVUnion Bank of India ATM
p1058
aVCanara Bank ATM
p1059
aVCanara Bank ATM
p1060
aVHDFC ATM
p1061
aVHDFC ATM
p1062
aVSBI ATM
p1063
aVState Bank of India ATM
p1064
aVKVB ATM
p1065
aVKarur Vysya ATM
p1066
aVUnion Bank of India ATM
p1067
aVHDFC ATM
p1068
aVHDFC ATM
p1069
aVHDFC ATM
p1070
aVKarnataka Bank Raghuvanahalli Branch
p1071
aVState Bank of Mysore ATM
p1072
aVCorporation Bank ATM
p1073
aVHSBC ATM
p1074
aVKotak Mahindra ATM
p1075
aVAxis Bank ATM
p1076
aVAndhra Bank ATM
p1077
aVSBI ATM
p1078
aVState Bank of India ATM
p1079
aVSBI ATM
p1080
aVState Bank of India ATM
p1081
aVSyndicate Bank ATM
p1082
aVVijaya Bank ATM
p1083
aVKarnataka Bank
p1084
aVSBI
p1085
aVState Bank of India SME Kumarapark Branch
p1086
aVSBM
p1087
aVState Bank of Mysore Cottonpet Branch
p1088
aVCorporation Bank
p1089
aVSouth Indian Bank Cox Town Branch
p1090
aVState Bank of Mysore
p1091
aVState Bank of Mysore
p1092
aVCiti Bank
p1093
aVCitibank
p1094
aVVijaya Bank Infantry Road Branch
p1095
aVState Bank of Mysore HSR Layout Branch
p1096
aVState Bank of Mysore Sampangiramanagar Branch
p1097
aVState Bank of Mysore City Branch
p1098
aVState Bank of Mysore Banashankari Branch
p1099
aVState Bank of Mysore Vanitha All Women Branch
p1100
aVICICI ATM
p1101
aVCiti Bank ATM
p1102
aVCitibank ATM
p1103
aVICICI ATM
p1104
aVICICI ATM
p1105
aVICICI ATM
p1106
aVOBC ATM
p1107
aVOriental Bank of Commerce ATM
p1108
aVYes Bank ATM
p1109
aVICICI ATM
p1110
aVICICI ATM
p1111
aVState Bank of Mysore CGO Complex Branch
p1112
aVIndustrial Development Bank of India Ltd
p1113
aVIDBI Bank Koramangala Branch
p1114
aVCiti Bank ATM
p1115
aVCitibank ATM
p1116
aVMahaBank ATM
p1117
aVBOM ATM
p1118
aVBank of Maharashtra ATM Indiranagar Branch
p1119
aVBata
p1120
aVDTDC Courier
p1121
aVPark Avenue
p1122
aVICICI ATM
p1123
aVICICI ATM
p1124
aVICICI ATM
p1125
aVICICI ATM
p1126
aVICICI ATM
p1127
aVICICI ATM
p1128
aVICICI ATM
p1129
aVCorporation Bank ATM
p1130
aVCorporation Bank ATM
p1131
aVHSBC ATM
p1132
aVHSBC ATM
p1133
aVPNB ATM
p1134
aVPunjab National Bank ATM
p1135
aVSBI ATM
p1136
aVState Bank of India ATM
p1137
aVSBI ATM
p1138
aVState Bank of India ATM
p1139
aVState Bank of Mysore ATM
p1140
aVState Bank of Mysore ATM
p1141
aVState Bank of Mysore ATM
p1142
aVState Bank of Mysore ATM
p1143
aVState Bank of Mysore ATM
p1144
aVAxis Bank ATM
p1145
aVIDBI ATM
p1146
aVUCO Bank ATM
p1147
aVCanara Bank ATM
p1148
aVLVB ATM
p1149
aVLakshmi Vilas Bank ATM
p1150
aVSBI ATM
p1151
aVState Bank of India ATM
p1152
aVAxis Bank ATM
p1153
aVAxis Bank ATM
p1154
aVICICI ATM
p1155
aVUnion Bank of India ATM
p1156
aVHDFC ATM
p1157
aVAxis Bank ATM
p1158
aVCanara Bank ATM
p1159
aVBangalore City Cooperative Bank Ltd
p1160
aVBangalore City Cooperative Bank
p1161
aVUnion Bank of India ATM
p1162
aVAxis Bank ATM
p1163
aVHDFC ATM
p1164
aVAxis Bank ATM
p1165
aVSBI ATM
p1166
aVState Bank of India ATM
p1167
aVSBI ATM
p1168
aVState Bank of India ATM
p1169
aVCanara Bank ATM
p1170
aVIndian Bank ATM
p1171
aVSBI ATM
p1172
aVState Bank of India ATM
p1173
aVIndus Ind Bank
p1174
aVIndusInd Bank
p1175
aVSBI ATM
p1176
aVState Bank of India ATM
p1177
aVICICI ATM
p1178
aVSBI ATM
p1179
aVState Bank of India ATM
p1180
aVCanara Bank ATM
p1181
aVVijaya Bank ATM
p1182
aVHDFC ATM
p1183
aVSyndicate Bank ATM
p1184
aVSBM ATM
p1185
aVState Bank of Mysore ATM
p1186
aVAxis Bank ATM
p1187
aVHDFC ATM
p1188
aVVeerashaiva Sahakari Bank Ltd
p1189
aVVeerashaiva Sahakari Bank Basaveshwaranagar Branch
p1190
aVIOB ATM
p1191
aVIndian Overseas Bank ATM
p1192
aVAxis Bank ATM
p1193
aVCorporation Bank ATM
p1194
aVICICI ATM
p1195
aVHDFC ATM
p1196
aVCanara Bank ATM
p1197
aVSBI ATM
p1198
aVState Bank of India ATM
p1199
aVCanara Bank ATM
p1200
aVLVB ATM
p1201
aVLakshmi Vilas Bank ATM
p1202
aVAxis Bank ATM
p1203
aVSBM ATM
p1204
aVState Bank of Mysore ATM
p1205
aVSCB ATM
p1206
aVStandard Chartered ATM
p1207
aVAxis Bank ATM
p1208
aVHDFC ATM
p1209
aVFedBank ATM
p1210
aVFederal Bank ATM
p1211
aVHDFC ATM
p1212
aVCanara Bank ATM
p1213
aVHDFC ATM
p1214
aVICICI ATM
p1215
aVSouth Indian Bank ATM
p1216
aVCanara Bank ATM
p1217
aVSBI ATM
p1218
aVState Bank of India ATM
p1219
aVAxis Bank ATM
p1220
aVKotak Mahindra ATM
p1221
aVCanara Bank ATM
p1222
aVState Bank of Mysore ATM
p1223
aVUCO Bank ATM
p1224
aVSyndicate Bank ATM
p1225
aVCorporation Bank ATM
p1226
aVKotak Mahindra ATM
p1227
aVCorporation Bank ATM
p1228
aVICICI ATM
p1229
aVKotak Mahindra ATM
p1230
aVFedBank ATM
p1231
aVFederal Bank ATM
p1232
aVSBI ATM
p1233
aVState Bank of India ATM
p1234
aVSyndicate Bank ATM
p1235
aVCorporation Bank ATM
p1236
aVAndhra Bank ATM
p1237
aVAxis Bank ATM
p1238
aVCanara Bank ATM
p1239
aVCanara Bank ATM
p1240
aVCiti Bank ATM
p1241
aVCitibank ATM
p1242
aVCorporation Bank ATM
p1243
aVCorporation Bank ATM
p1244
aVBOB ATM
p1245
aVBank of Baroda
p1246
aVBank of Baroda ATM
p1247
aVSir M Visvesvaraya Cooperative Bank Ltd
p1248
aVSir M Visvesvaraya Cooperative Bank
p1249
aVFedBank ATM
p1250
aVFederal Bank ATM
p1251
aVCanara Bank ATM
p1252
aVAxis Bank ATM
p1253
aVSBI ATM
p1254
aVState Bank of India ATM
p1255
aVKarnataka Rajya Kaigarika Vanijya Sahakara Bank
p1256
aVCorporation Bank ATM
p1257
aVKarnataka Bank
p1258
aVIndian Bank Avenue Road Branch
p1259
aVIndian Bank NTY Layout Branch
p1260
aVState Bank of Mysore
p1261
aVState Bank of Mysore
p1262
aVICICI Bank Electronics City Branch
p1263
aVHDFC Bank Mahalaxmipuram Branch
p1264
aVState Bank of Mysore
p1265
aVFedBank
p1266
aVFederal Bank Gandhinagar Branch
p1267
aVDena Bank Kempegowda Road Branch
p1268
aVSouth Indian Bank
p1269
aVState Bank of Mysore
p1270
aVVijaya Bank South End Road Branch
p1271
aVCiti Bank
p1272
aVCitibank
p1273
aVSBI
p1274
aVState Bank of India Nagarabhavi 2nd Stage Branch
p1275
aVSBI
p1276
aVState Bank of India Jayanagar 4th T Block Branch
p1277
aVState Bank of Mysore JP Nagar Branch
p1278
aVSouth Indian Bank
p1279
aVHDFC Bank Indiranagar Branch
p1280
aVHDFC Bank JP Nagar Branch
p1281
aVFedBank
p1282
aVFederal Bank Koramangala Branch
p1283
aVHDFC Bank KR Road Branch
p1284
aVHDFC Bank New BEL Road Branch
p1285
aVHDFC Bank Empire Infantry Road Branch
p1286
aVCiti Bank ATM
p1287
aVCitibank ATM
p1288
aVICICI ATM
p1289
aVICICI ATM
p1290
aVICICI ATM
p1291
aVMahaBank ATM
p1292
aVBank of Maharashtra ATM
p1293
aVOBC ATM
p1294
aVMy Time ATM
p1295
aVOriental Bank of Commerce ATM
p1296
aVOBC ATM
p1297
aVOriental Bank of Commerce ATM
p1298
aVCiti Bank ATM
p1299
aVCitibank ATM
p1300
aVMoti Mahal Delux
p1301
aVMoti Mahal Delux
p1302
aVMaruti Suzuki Essarr Automotives Distributor
p1303
aVMaruti Suzuki Essarr Automotives
p1304
aVVodafone Mini Store
p1305
aVVodafone
p1306
aVVodafone Store
p1307
aVSony World
p1308
aVSony Centre
p1309
aVUnivercell
p1310
aVVision Express
p1311
aVScullers
p1312
aVICICI ATM
p1313
aVICICI ATM
p1314
aVICICI ATM
p1315
aVICICI ATM
p1316
aVICICI ATM
p1317
aVICICI ATM
p1318
aVKarnataka Bank
p1319
aVMahaBank ATM
p1320
aVBank of Maharashtra ATM
p1321
aVState Bank of Mysore ATM
p1322
aVCanara Bank ATM
p1323
aVCanara Bank ATM
p1324
aVHDFC ATM
p1325
aVICICI ATM
p1326
aVCiti Bank ATM
p1327
aVCitibank ATM
p1328
aVCorporation Bank ATM
p1329
aVCorporation Bank ATM
p1330
aVCorporation Bank ATM
p1331
aVFedBank ATM
p1332
aVFederal Bank ATM
p1333
aVFedBank ATM
p1334
aVFederal Bank ATM
p1335
aVHDFC ATM
p1336
aVHDFC ATM
p1337
aVHDFC ATM
p1338
aVHDFC ATM
p1339
aVHDFC ATM
p1340
aVHDFC ATM
p1341
aVICICI ATM
p1342
aVNational Cooperative Bank Yeshwanthpura Branch
p1343
aVNational Cooperative Bank ATM
p1344
aVIDBI ATM
p1345
aVCanara Bank ATM
p1346
aVCorporation Bank ATM
p1347
aVICICI ATM
p1348
aVHDFC ATM
p1349
aVHDFC ATM
p1350
aVHDFC ATM
p1351
aVHDFC ATM
p1352
aVICICI ATM
p1353
aVState Bank of Mysore ATM
p1354
aVKVB ATM
p1355
aVKarur Vysya ATM
p1356
aVAxis Bank ATM
p1357
aVING Vysya Bank ATM
p1358
aVKotak Mahindra ATM
p1359
aVAmanath Cooperative Bank ATM
p1360
aVAxis Bank ATM
p1361
aVCorporation Bank ATM
p1362
aVAxis Bank ATM
p1363
aVKarnataka Bank
p1364
aVFedBank ATM
p1365
aVFederal Bank ATM
p1366
aVSouth Indian Bank ATM
p1367
aVCanara Bank ATM
p1368
aVIndus Ind Bank
p1369
aVIndusInd Bank
p1370
aVPNB ATM
p1371
aVPunjab National Bank ATM
p1372
aVHDFC Bank
p1373
aVHDFC ATM
p1374
aVAxis Bank ATM
p1375
a.