(lp0
VEmbassy Habitat
p1
aVSmaart Forte Apartments
p2
aVSobha Signature Apartments
p3
aVSilverwood Regency
p4
aVPrestige Wellington Park
p5
aVBrigade Omega
p6
aVPrestige Residency
p7
aVRajmatas Home
p8
aVPurvankara Apartment
p9
aVWoodsman Estate
p10
aVSobha Windfall
p11
aVCentury Corbel
p12
aVGMR Heights
p13
aVTherani Tower
p14
aVVidmahe Enclave
p15
aVJayashree Apartments
p16
aVVaishnavi Lakeview Apartment
p17
aVAnand Residency
p18
aVMothers Paradise
p19
aVAfwwa Shopping Complex East Officer Enclave
p20
aVShri Guru Nandanam
p21
aVSaravana Tranquil Heights
p22
aVNatures Nest
p23
aVPremium Row Housing
p24
aVRenaissance HVV Valley
p25
aVRenaissance Woods
p26
aVLimelite
p27
aVPampau Enclave
p28
aVMaxworth
p29
aVSai Residency
p30
aVDeccan Greens
p31
aVPegasus Banyan Breeze
p32
aVBSNL Telecom Office Quarters
p33
aVState Bank House
p34
aVEden Hall
p35
aVNest
p36
aVState Bank of India Ex Flats
p37
aVNatasha Golf View Apts
p38
aVNatasha Golf View Apartment
p39
aVMorzaria Industrial Estate
p40
aVSobha Morzaria Grandeur
p41
aVBangalore Water Supply And Sewerage Board Staff Quarters
p42
aVVajkas
p43
aVPark View Apartment
p44
aVVijay Enclave
p45
aVPark Enclave
p46
aVWaris Suil Madina
p47
aVLucela
p48
aVRucela
p49
aVICICI Apts
p50
aVICICI Apartment
p51
aVSenior Police Officers Residential Complex
p52
aVManufactures Hi Tech
p53
aVGeneral Thimayya Officers Colony
p54
aVKrishna
p55
aVEdward House
p56
aVMillennium Apartment
p57
aVPrestige Millennium Apartment
p58
aVPlumeria Apartment
p59
aVJyothi Apartment
p60
aVDeccan Suites
p61
aVBPS
p62
aVRadiant Daffodils
p63
aVChitnis Ascent Royale Apartment
p64
aVChitnis Ascent Royale Apartments
p65
aVRoyal Touch
p66
aVShubh Enclave
p67
aVCrescent Classic Apartment
p68
aVCrescent Classic
p69
aVNaga Residency Apartment
p70
aVNaga Ahuja Enclave
p71
aVGodrej Apartment
p72
aVGodrej Platinum
p73
aVGolden Daffodils
p74
aVPrestige Park View
p75
aVAishwarya Opulence Apartment
p76
aVScotts Dale
p77
aVShanti Apts
p78
aVShanthi Apartment
p79
aVMulberry Homes
p80
aVMarutin Apts
p81
aVMaruthi Apartment
p82
aVEmbassy Oasis Promenande Road
p83
aVOman Topaz
p84
aVAshlar
p85
aVGagan Tara
p86
aVLG Rose Heritage
p87
aVFair Haven Apts
p88
aVFair Haven Apartment
p89
aV9th BN KSRP Quarters
p90
aVVictorian Willows
p91
aVLGCC Bamboo Forest
p92
aVArge Urban Bloom
p93
aVCynosure Vivacity
p94
aVShravanthi Palladium
p95
aVAmber Woods
p96
aVJr Mansion
p97
aVLiberty Square
p98
aVDSMAX Supreme
p99
aVDream Delight
p100
aVAprameya Vrinda
p101
aVBGS GIMS Staff Quarters C Block
p102
aVPoornaprajna Suvarna Bhavana
p103
aVEverest Enclave
p104
aVGayatri Niketan
p105
aVGriha Mitra
p106
aVGrand Gandharva
p107
aVAvani Amulya
p108
aVElegant Embassy 3 Block A
p109
aVSai Shakthi Enclave
p110
aVPrakruthi Lake View
p111
aVBirla Apple Spire
p112
aVLakshmi Nilaya
p113
aVFully Home
p114
aVBhuvana Burgundy Orchards
p115
aVVrindavan Bliss
p116
aVHeritage Estate
p117
aVNcc Urban
p118
aVPrestige Monte Carlo
p119
aVRay House
p120
aVGVR Enclave
p121
aVHigh Rise
p122
aVAksayas Shell Brundavan
p123
aVParsar Bharati Staff Quarters
p124
aVNagarjuna Meadoes 2
p125
aVRadiant Karel
p126
aVDivinity
p127
aVSalarpuria Sattva
p128
aVMelody
p129
aVBrigade Panorama
p130
aVSundar Kunj
p131
aVBindu Annmol
p132
aVSR Enclave
p133
aVHari Shree Mansion
p134
aVGovernment of India Z Block
p135
aVHarsha Orchid
p136
aVDeccan Residency
p137
aVVaibhav Serene
p138
aVTemple Trees
p139
aVMS Apartments
p140
aVRamsons Premier Galaxy Apartments
p141
aVVaishnavi Springs
p142
aVMaharaja Residency
p143
aVMohini Kunj
p144
aVBrindavan Mansion
p145
aVMillennia Grandeur Sona
p146
aVThyagarajanagar Police Quarters
p147
aVShanthi Grands
p148
aVPearl
p149
aVKanaka Sri Complex
p150
aVAdarsh Premia
p151
aVSapthagiri Residency Two
p152
aVSapthagiri Residency One
p153
aVSri Sai Nilaya
p154
aVSN Meera Devi
p155
aVMeera Mand
p156
aVSai Srinivasa Hills
p157
aVSai Madhura Grace One
p158
aVBrindavana
p159
aVSiri Exotica
p160
aVOriental Suits
p161
aVGuru Krupa
p162
aVSiri Exotica Plue
p163
aVPristine Pride
p164
aVWhitefield Bougainvilla
p165
aVWhite Acres
p166
aVAlembic Group
p167
aVAlchemy Real Estate
p168
aVSterling Villa Grande
p169
aVSpring Seas Sun Shine
p170
aVHeights
p171
aVM Thippa Reddy
p172
aVOm Sri Sai Ram
p173
aVSumadhuras
p174
aVSilver Oak
p175
aVSrimitra Springwoods
p176
aVPurvi Pristine
p177
aVKK Veni Plaza
p178
aVKeerthi Surya Shakti Towers
p179
aVThe Garnel Park
p180
aVVogue Residences
p181
aVPebble Creek
p182
aVC Ramiahs
p183
aVWaterwoods
p184
aVVahe Landmark
p185
aVPanacea Golden Nest
p186
aVVertex Venezia
p187
aVGeown Legacy
p188
aVRoyal Orchid Suites
p189
aVVaswani Pinnacle
p190
aVSrimitra Landmark
p191
aVEast Crest
p192
aVNitesh Camp David
p193
aVWellington Park
p194
aVSR Residency
p195
aVSNR Lemara
p196
aVSiroya Sunshine
p197
aVRBS Residency
p198
aVKendriya Vidyalay ASC Centre Staff Quarters
p199
aVSky Gardens
p200
aVMukund Apartments
p201
aVPalmgrove Nook
p202
aVShelter
p203
aVPristine Magnum
p204
aVGR Templation
p205
aVKIMS Hospital Residents Quarters
p206
aVSirsi Heights
p207
aVPurva Belmont
p208
aVSyndicate Bank Officers Quarters Block No 46 To 48
p209
aVHilton Residence Colony Gate
p210
aVMantri Flora
p211
aVIdeal Homes Township
p212
aVMaithri
p213
aVMaithri In
p214
aVNCC Urban
p215
aVRedifice Pvt Residence
p216
aVAugust Center
p217
aVBrigade Caladium
p218
aVParisaraa Flying View
p219
aVRenaissance Aero
p220
aVKNK Apartment
p221
aVShruthi Developer Civil Aviation And Met Department Employed Cooperative House Building Society Ltd
p222
aVCivil Aviation and Met Department Employed Cooperative House Building Society Ltd
p223
aVSM Pearl
p224
aVArvind Orchards
p225
aVPrestige Royal Garden
p226
aVRmj Galleria Residences
p227
aVRmj Galleria Residences Entry
p228
aVBaver Apartment
p229
aVCentury Artizan
p230
aVMagan Mahal Residency
p231
aVBankey Court
p232
aVParkwest
p233
aVSri Maruthi Enclave
p234
aVUG Residency
p235
aVGuru Krupa
p236
aVNarmada Mansion
p237
aVRS Ram
p238
aVRam Sannadhi
p239
aVUP Serenity
p240
aVGolden Orchid
p241
aVHemadri Residency
p242
aVSampurna 4
p243
aVSri Guru Priya
p244
aVSafna Sadan
p245
aVFortune Paradise
p246
aVPadmashree Apartments
p247
aVKrishna
p248
aVChowdeshwari Platinum
p249
aVSree Sai Ram Enclave
p250
aVVVR Supreme Residency
p251
aVVallabha Temple Bells
p252
aVRathnadeepaka Residency
p253
aVVaastu Residency
p254
aVKristal Dolomite
p255
aVSrivari Bliss
p256
aVVishwothama
p257
aVArise Crosswoods
p258
aVBrookes Haven
p259
aVSky Asta
p260
aVPrasanthi Grand Villa
p261
aVMGB Couuty
p262
aVAnugraha Greens
p263
aVAshraya Enclave Apartment
p264
aVSai Krupa Gardens
p265
aVAnjanadri Meadows
p266
aVDass Suites
p267
aVKolumi Heights
p268
aVVista Spaces
p269
aVLeela Karan
p270
aVBangalore Metropolitan Transport Corporation Quarters D Block
p271
aVBangalore Metropolitan Transport Corporation Quarters C Block
p272
aVBangalore Metropolitan Transport Corporation Quarters B Block
p273
aVBangalore Metropolitan Transport Corporation Quarters A Block
p274
aVParvati Niwas
p275
aVSS Arcade
p276
aVTemple Tree
p277
aVEden Garden
p278
aVSai Anugraha Enclave
p279
aVQueen Valley
p280
aVInfant 25th Avenue
p281
aVSunnyvale
p282
aVMS Shelters
p283
aVSubh Enclave
p284
aVSymphony
p285
aVCommune
p286
aVJR Housing
p287
aVSai Prashanth Enclave
p288
aVKarnataka Housing Board
p289
aVGolden Bell
p290
aVAira Serviced Apartments Pvt Ltd
p291
aVMalind Tropika Gardens
p292
aVAmrutha Priya Residency
p293
aVCentury Linea
p294
aVKundur Park
p295
aVNitesh Estates
p296
aVPriyanka Villas
p297
aVKrishna Enterprises
p298
aVKrishna Shelton
p299
aVKrishnaja Greens
p300
aVConcept City Group Midas Exotica
p301
aVMidas Exotica
p302
aVHollywood Apartment
p303
aVThe Hamlet
p304
aVNavneet View Enclave
p305
aVFeatherlite Developers
p306
aVEcopolis
p307
aVSanctum Suites
p308
aVFestive Park
p309
aVBlossom Ville
p310
aVArfa Citadel
p311
aVElegant Altis
p312
aVCrown Orchid Luxury Homes
p313
aVVandana Lotos
p314
aVSterling Silver End
p315
aV9th BN KSRP Quarters
p316
aVKanya Royal
p317
aVNeeladri Mahal
p318
aVZed Enclave
p319
aVSolaris Apartment
p320
aVAnugraha Enclave Block 2
p321
aVGolden Enclave Exit Gate 2
p322
aVAdarsh Rhythm Apartment In
p323
aVBrindavan Elite
p324
aVMRD Residency
p325
aVDurga
p326
aVNeeladri Properties
p327
aVDeo Bliss
p328
aVDevvagiri Builders
p329
aVSNR Square
p330
aVGM Glorita
p331
aVVijaya Sri Elixir
p332
aVMarried Accommodation Project Phase Two
p333
aVVasanth Enclave
p334
aVAmigo Lakeview
p335
aVSkyline Beverly Park
p336
aVCentrury Breeze
p337
aVBCD
p338
aVRJ Lake
p339
aVNorth Block
p340
aVPark Grand
p341
aVARTS Residency
p342
aVOne
p343
aVAn Iqrays Enterprise
p344
aVPadmalaya
p345
aVElegant Elegance
p346
aVBrigade Metropolis
p347
aVDivya Residency
p348
aVSundher Heights
p349
aVPushpakama
p350
aVBrigade Palmsprings
p351
aVPioneer Paradise South Block
p352
aVPioneer Paradise Central Block
p353
aVPioneer Paradise North Block
p354
aVPioneer Paradise
p355
aVBrigade Millennium Laburnum
p356
aVParswa Residency
p357
aVArjun Sagar Residency
p358
aVAshish Pride
p359
aVCauvery Apartment
p360
aVMukund Vivek Paradise
p361
aVMahaveer
p362
aVSumadhura Lake Breeze
p363
aVDNR Atmosphere
p364
aVJagriti Renaissance
p365
aVEzzy Whitefield
p366
aVAssetz
p367
aVChaithanya Samarpan
p368
aVSai Gardens
p369
aVAnjanayamma Illuri
p370
aVIlluri
p371
aVSV Mayfair
p372
aVSumadhura Anandam Entry
p373
aVSumadhura Anandam Exit
p374
aVEmerald Enclave
p375
aVGate 2
p376
aVDSR Green Vista OUT
p377
aVPrestige Langleigh Gate 1
p378
aVPrestige Langleigh Gate 2
p379
aVPrestige Langleigh Gate 3
p380
aVPrestige Langleigh Gate 4
p381
aVPrestige Langleigh Gate 5
p382
aVPrestige Palms In
p383
aVPrestige Palms Out
p384
aVPrestige Sunflower Villas
p385
aVDurga Petals
p386
aVSantosh Residency
p387
aVBrigade Lake Front
p388
aVGajanana
p389
aVVaswani Exquisite
p390
aVArka Shine
p391
aVIckon Gardenia
p392
aVMoonstone Park
p393
aVBren Starlight
p394
aVBrigade Golden Triangle
p395
aVKagmam Platinum
p396
aVPolice Quarters Block 2
p397
aVBharath Enclave I
p398
aVThiripura
p399
aVVaishnavi Groups
p400
aVGardenia
p401
aVLaurel Heights
p402
aVJnnurm D Block
p403
aVAdarsh Crystal
p404
aVChoriappa Viola
p405
aVApollo Greens
p406
aVInterface House
p407
aVRanka Corner
p408
aVHM Cambridge Square
p409
aVFlag Staff House
p410
aVKSL Kantoor
p411
aVSRPC Staff Quarters
p412
aVArya Krishna Apartment
p413
aVRamky One Worth
p414
aVLegace Estilo
p415
aVSN 8
p416
aVAdarsh Arya
p417
aVBalaji Homes
p418
aVSneha Paradise
p419
aVRamya Residency
p420
aVMR Arcade
p421
aVJin Darshan
p422
aVConstellation
p423
aVSMS Arcade
p424
aVSycon Cressida
p425
aVPrestige Gulmohar
p426
aVAston Service Apartment
p427
aVShree Vinayaka Nilaya
p428
aVEnarch Elite
p429
aVAmulya Homes
p430
aVLakshman Sankalp
p431
aVPrabhavathi Flora
p432
aVSiri
p433
aVVandana Sai Nivas
p434
aVUnishire
p435
aVMahindra Life Spaces
p436
aVVHD
p437
aVTirumala Deluxe
p438
aVRoyal Green Apartment
p439
aVJains Villa Vivianaa
p440
aVFortuna
p441
aVCrescent Villa
p442
aVCrescent Apartment
p443
aVMay Flower
p444
aVRS Manson
p445
aVFeatherlite Developers
p446
aVOhana Gardens
p447
aVAdonai Glory
p448
aVArge Helios
p449
aVSV Heights
p450
aVMaithri Out
p451
aVMagnificia
p452
aVChitra Manor
p453
aVSai Krupa
p454
aVNavachetana
p455
aVSrimati Kamalamma NH Muniyappa Complex
p456
aVAryan Basil
p457
aVAryan Tower
p458
aVShriram Hebbal One
p459
aVManpho Spectrum 2
p460
aVPanchamukhi Homes
p461
aVVijis Residensy
p462
aVVictory Residency
p463
aVRidge Court
p464
aVTriguna
p465
aVCanopy Apartment
p466
aVLegacy Eldora
p467
aVMALLI Group
p468
aVBrigade North Ridge
p469
aVDS Max Sunshine Apartment
p470
aVMN Guru Gokulam
p471
aVApoorva Meadows
p472
aVADI Apartment
p473
aVNorth Avenue
p474
aVUnishire
p475
aVTranquil
p476
aVThirumala Residency
p477
aVWhitecaral Apartment
p478
aVMithuna White Water
p479
aVDheeraj Lake Front
p480
aVSrinnidi Aashriha
p481
aVIndys Estate
p482
aVThe Queen
p483
aVKavitha Residency
p484
aVGalaxy Apartment
p485
aVSN Luxor
p486
aVVijaya Enclave
p487
aVAditya Sunshine
p488
aVGina Shalom
p489
aVReshma Enclave
p490
aVRanka Plaza
p491
aVVarashan
p492
aVAbhivruddhi
p493
aVIshwerya May Flower
p494
aVPrime Gardens
p495
aVOM Sairam Hallow Block
p496
aVDream Scape Towers
p497
aVLibra Enclave
p498
aVNCC Urban
p499
aVNitesh
p500
aVCalifornian Villas
p501
aVSterling Infinia
p502
aVAalaya Homes
p503
aVVandana Sarovar
p504
aVLGCL Apartment
p505
aVRoyal Palms
p506
aVMahendra Homes Pvt Ltd
p507
aVGCA Rainbow
p508
aVBESCOM Quarters
p509
aVPramuk Aqua Heights
p510
aVShantinikethan
p511
aVBhagyalakshmi
p512
aVSri Gurumurthy Swamy Residency
p513
aVImperial Solitare
p514
aVSalarpuria Serenity Block A
p515
aVSalarpuria Serenity Block B
p516
aVRKR Apartment
p517
aVSunny Villa
p518
aVSai Krishna Apartment
p519
aVNorth Gate
p520
aVAssetz
p521
aVPalm Springs
p522
aVElegant Habitat
p523
aVAlpha Emerand
p524
aVGoldline Residency
p525
aVWaterscape
p526
aVHemanth Avokya Dos
p527
aVVM Meadows
p528
aVKendriya Vihar
p529
aVFortuna
p530
aVRoyale Apartment
p531
aVGreen Oaks
p532
aVSai Charita Green Works
p533
aVDS Max Skycity
p534
aVKanak Shri Gruha Nirman Sahakari Sanstha
p535
aVShriram Luxor Apartment
p536
aVSalarpuria Sattva Aspire
p537
aVLGCL Beautiful World
p538
aVMantri Webcity
p539
aVPride Palatia
p540
aVPrimus Reflection
p541
aVPrimus Eden
p542
aVCadabams Tri Star Care
p543
aVArunas
p544
aVMU Nest
p545
aVBairava Crescent
p546
aVRevanth Mansion
p547
aVImperial Housing And Infrastructure
p548
aVNavkis Celeste
p549
aVSri Jai
p550
aVZero Energy Development
p551
aVZED Apartment
p552
aVProvident Welworth City
p553
aVNysa Gulmohar
p554
aVKB Master Complex
p555
aVLagacy Caldera
p556
aVConstruction Officers Residency
p557
aVGold Opus
p558
aVMiller Apartment
p559
aVRoyal Touch
p560
aVStar Avenue
p561
aVSanthi Kiran
p562
aVFair Mont
p563
aVMiyap Menar
p564
aVThe Palms Spa
p565
aVBrigade Group
p566
aVRaheja Gardenia
p567
aVKings Cliff
p568
aVFamily YMCA
p569
aVArafa Classic
p570
aVPrinceton
p571
aVBR Enclave
p572
aVVijaya Spring Woods
p573
aVAratt
p574
aVDivyajyothi Royal Heights
p575
aVArattukulam
p576
aVShree Nivas
p577
aVPrasanth Garden
p578
aVParamount Sumadhura Serne Apartment
p579
aVGR Shanthi Nivas
p580
aVMR Enclave
p581
aVVensa Residency
p582
aVYR Keerthi Residency
p583
aVLotus Ecstasy
p584
aVAK Residency
p585
aVAxis Capstone Estrella Terraces
p586
aVAishwarya Gloden Nest
p587
aVDrishti Dwellings
p588
aVDS Max
p589
aVRaghus Park View
p590
aVFusion Iris
p591
aVMathru Krupa
p592
aVThatashree Apartment
p593
aVBimalkanth Saravana Residency
p594
aVCoronet Greens Apartment
p595
aVIshaa Lake Front Apartment A Block
p596
aVSuraksha Landmark
p597
aVParamount Pilatus Block No A3
p598
aVParamount Pilatus Block No A2
p599
aVSumukha Greenville
p600
aVSumukha
p601
aVSiddarth Mansion
p602
aVNiveditha
p603
aVNandan Prime Rose
p604
aVElegance
p605
aVSV Lake View Apartment
p606
aVJute Tree
p607
aVUnitech Pearl
p608
aVSalarpuria Sattva Cadenza
p609
aVGurumurthy Swamy Prasanna
p610
aVHoliac Realty
p611
aVBaba Towers
p612
aVParamount Pilatus Block No A1
p613
aVBren Palms
p614
aVSiddart Saphire Apartment B Block
p615
aVSri Srinivas Reddy
p616
aVMahaveer Ranchies Gate 1
p617
aVNeeladri Mahal 2
p618
aVVedant Vihas
p619
aVKMR Apartment
p620
aVParamount Pilatus Block No A5
p621
aVForest View Comforts
p622
aVPruthvi Tower
p623
aVRamki Silver Strings
p624
aVRoyal
p625
aVVC Thippa Reddy
p626
aVPurvi Lotus
p627
aVPurva Sunshine Apartment A Block
p628
aVKVR Lotus
p629
aVParamount Pilatus Block No A4
p630
aVMantri Woodlands
p631
aVAldila
p632
aVPrestige Notting Hill
p633
aVKristal Beryl
p634
aVObezod Service Apartments
p635
aVVandana Pearls
p636
aVCitrino Exit
p637
aVCitrino Entry
p638
aVSJR Equinox Entry
p639
aVEssenza
p640
aVNishta Residency
p641
aVSri Sai Niwas
p642
aVArattukulam
p643
aVGreenage
p644
aVIcon Sanctuary
p645
aVTelecom Woods Residency
p646
aVG Ruthara
p647
aVLyndhurst
p648
aVPruthvi Nilaya
p649
aVGoyal And Company
p650
aVHaryana Group
p651
aVOrchid Lakeview
p652
aVAakruthi Sunshine
p653
aVThe Waves Serviced Apartment
p654
aVSterling Ascentia
p655
aVPrime Lavender
p656
aVAugustine Niwas
p657
aVSwadeshi
p658
aVViha Forum
p659
aVLoksai Residency
p660
aVCentury Pragati Smart Homes Entry
p661
aVSai Kranthi
p662
aVAkshaya Residency
p663
aVSaaya Serene
p664
aVSaaya Serene In
p665
aVSaaya Serene Out
p666
aVAdarsh Rhythm Apartment Out
p667
aVMahaveer Classic
p668
aVAkansha
p669
aVPerody Builders
p670
aVJain Heights
p671
aVPublic Works Employee Apartment
p672
aVEndra Residency
p673
aVNavya Residency
p674
aVPrerana
p675
aVBrigade Gateway
p676
aVAbinaya Apartment
p677
aVShandilya
p678
aVUnnathi Apartment
p679
aVMandhara
p680
aVNarasimha Nilaya
p681
aVRV Apartments
p682
aVTrinetra
p683
aVRajani
p684
aVVinsco Residency
p685
aVIndira
p686
aVTripura Nest
p687
aVAbrijit Annexe
p688
aVAntarksh Apartment
p689
aVShanthi Niketan
p690
aVSurya Nest
p691
aVNeela
p692
aVParishrama
p693
aVAura
p694
aVSurabhimathi
p695
aVHVS Homes 5
p696
aVPGK Nilaya
p697
aVRadiant Elitire
p698
aVCentury Pragati Smart Homes
p699
aVCentury Pragati Smart Homes Exit
p700
aVKamadhenu
p701
aVSrinivasa
p702
aVShri Lalitha
p703
aVVG Kahairs Apartment
p704
aVPraksh Residence
p705
aVVeerappa Block
p706
aVNrumpai
p707
aVKailash
p708
aVIndu Apartment 3
p709
aVUP Homes
p710
aVYadugiri Nest
p711
aVVijay Manor
p712
aVGirijahari Kunj Apartments
p713
aVSampurna 2
p714
aVGeethanjali
p715
aVRV 19 Apartment
p716
aVBiligiri Nest
p717
aVPavithra Apartments
p718
aVKrishna Leela
p719
aVUP Nest
p720
aVRenaissance Nritya
p721
aVMandurg
p722
aVRenaissance Sudarshan
p723
aVSoundarya Manor
p724
aVBalaji Malur
p725
aVAdithi Victory 1
p726
aVKaustubha
p727
aVNS English Country
p728
aVSudhama
p729
aVRashi Residency Gate 1
p730
aVRashi Residency Gate 2
p731
aVSri Ragavendra Nilaya
p732
aVRenuka Homes
p733
aVRuby Apartments
p734
aVKKR AMR
p735
aVSB Builders and Infra Structures
p736
aVVaishnavi Rathnam Apartment
p737
aVPratham Casa Serene
p738
aVJanapriya Heights
p739
aVSree Nilaya
p740
aVRohini Nilaya
p741
aVGovindappa Residency
p742
aVNadini Layout Government Quarters
p743
aVSyndicate Bank Officers Quarters Nandini Layout
p744
aVSri Ram Enclave
p745
aVSai Baba Niwas
p746
aVLakshmi Kuteera
p747
aVChithappa
p748
aVNandini Layout Fire Station Quarters
p749
aVSuhasini Complex
p750
aVReserve Bank Staff Quarters
p751
aVSri Lakshmi Nilaya
p752
aVCornwell Rustum Ji Apts
p753
aVCornwell Rustum Ji Apartment
p754
aVThe Elgin
p755
aVElgin Apartments
p756
aVPrestige The Elgin
p757
aVAhuja Palace
p758
aVThomson Realtors
p759
aVThomson Reuters
p760
aVAAI Quarters
p761
aVFaculty House
p762
aVJesuit Nivas
p763
aVElgin Apartment
p764
aVThe Elgin Apartment
p765
aVRich Homes
p766
aVNetwork Expert
p767
aVParas Mane Group
p768
aVAjmera Green Acers Apartment
p769
aVVeera Residency
p770
aVThe Bangalore Motor Owners Consumers Cooperative Society
p771
aVMasjid E Sadiq Complex
p772
aVUday Sagar Society
p773
aVIncor Infrastructure
p774
aVNand Deep Apartment
p775
aVEden Crest
p776
aVSkip House
p777
aVH Rama Swami
p778
aVGreen House
p779
aVGuru Preet Residency
p780
aVSapthagiri
p781
aVPralhoth Apartment
p782
aVSV Apartment
p783
aVVishal Apartment
p784
aVMones Residency
p785
aVDharni Comfort
p786
aVSri Rudraksh Residency
p787
aVMadku Durga Apartment
p788
aVKQN Apartment
p789
aVRP Regency
p790
aVSurya Homes Pvt Ltd
p791
aVRam Chandra Nilaya
p792
aVElite Promenade
p793
aVElita Promenade
p794
aVPetals Apartment
p795
aVRC Residency
p796
aVBSNL
p797
aVShiv Maya
p798
aVOak Tree
p799
aVAshwini Residency
p800
aVTulsi Paradise
p801
aVKR Developer Site
p802
aVTulip Garden
p803
aVGEO Residency
p804
aVEnchentiy Glen
p805
aVPolice Quarters
p806
aVPolice Quarters
p807
aVPrabhavathi Apartment
p808
aVS Kanda Niwas
p809
aVMeenakshi Apartment
p810
aVArneesh Residency
p811
aVRock View
p812
aVSobha Iris
p813
aVSri Ganesh Palace Apartment
p814
aVResida Nilayam
p815
aVRiches Regal Layout
p816
aVParisaraa Flying View
p817
aVNapa Valley
p818
aVConcorde Napa Valley
p819
aVPrestige St Johns Wood Apartment
p820
aVFort Grand Apartment
p821
aVShubh Enclave
p822
aVLeafy Blocks
p823
aVGayatri Curio Apartments
p824
aVBrigade Palmsprings
p825
aVRGRHCL
p826
aVPrabhavathi Royal Orchid
p827
aVBRS Residential Apartment
p828
aVLaxmi Apartment
p829
aVPalace Garden
p830
aVKrishna Glass Apts
p831
aVKrishna Glade Apartment
p832
aVSri Krupa
p833
aVVikash Apts
p834
aVVikash Apartment
p835
aVVikas Apartment
p836
aVShree Residency
p837
aVRashmi Rise
p838
aVBest Apartment
p839
aVIDL Apts
p840
aVIDL Apartment
p841
aVMantri Greens
p842
aVMTRDC Enclave
p843
aVJanapriya Nivas Apartment
p844
aVJai Apts
p845
aVJai Apartment
p846
aVSri Maruthi Home
p847
aVArchana Apts
p848
aVArchana Apartment
p849
aVMathrusree Orchid Homes
p850
aVLiberty Residency
p851
aVVanshee Rich Field
p852
aVShikharam
p853
aVSpencer SR Group Apartment
p854
aVCitilights Liberty
p855
aVCitilights Liberty Apartment
p856
aVSaffron Square
p857
aVJanapriya Sai Darshan
p858
aVVastu Bhoomi
p859
aVPurva Riviera
p860
aVSavoy Apartment
p861
aVVDB Willow Farm
p862
aVAparanta Enclave
p863
aVSVJ Palm Grove
p864
aVMalibu Paloma
p865
aVGSR Sri Nivasam Apartment
p866
aVWhispering Winds
p867
aVBuild Well Homes
p868
aVSS Felicity Homes
p869
aVDS Max Spark Apartment
p870
aVRahat Gardenia
p871
aVEast Inn
p872
aVDrumpellier Apartment
p873
aVPavani Park West
p874
aVPrestige Bougainvillea
p875
aVPride Orchid
p876
aVParadise Nest
p877
aVSamarpan Enclave
p878
aVWatts
p879
aVMarigold Apartment
p880
aVSpectra Cypress Apartment
p881
aVAKS Ballet
p882
aVPrestige Palms
p883
aVBDA Integrated Township
p884
aVAkshaya Redstone
p885
aVGalaxy Orchid Park
p886
aVPurab Manor
p887
aVOrchid Enclave
p888
aVWhitefield Boulevard Villas
p889
aVLaughing Waters
p890
aVNCC Maple Heights
p891
aVNagarjuna Maple Heights
p892
aVAlembic Glass Colony
p893
aVH Rise Apartment
p894
aVMera Homes
p895
aVSR Vigneshwara Nilaya
p896
aVDurga Coral Apartment
p897
aVBrigade Harmony
p898
aVShanthinikethan
p899
aVNitesh Forest Hills Apartment
p900
aVTen Downing Villas
p901
aVTristar Aishwarya Apartment
p902
aVMana Placido Apartments
p903
aVSai Raghavendra White Midas
p904
aVWhitefield Ville
p905
aVHSAMS Residency
p906
aVPrestige White Meadows
p907
aVSindhu Bairavi Apartments
p908
aVElitehome
p909
aVFoyer Infinity
p910
aVShanders Springdale
p911
aVPrestige Langleigh 1
p912
aVAditi Exotica
p913
aVVarishth Adhikarion Ka Enclave
p914
aVSenior Officers Enclave
p915
aVBrigade Cosmopolis
p916
aVAnu Apartment
p917
aVAtlantic Gopalan
p918
aVSpectra Plamwoods
p919
aVChitanya Swojas
p920
aVTivoli Apartment
p921
aVTranstree Serviced Apartment
p922
aVGreenville Tarot
p923
aVSavoy Luxury Villas
p924
aVChristella Villa
p925
aVSK Homes
p926
aVService Apartments
p927
aVSpectra Constructing Smiles
p928
aVJeevanadi Residency
p929
aVVinay Nilaya
p930
aVGM Complex
p931
aVGardenia Suites
p932
aVKeerthi Manor
p933
aVSri Moorabka
p934
aVHari Sadan
p935
aVRoyal Terrace Apartment
p936
aVGarden Mansion Apartment
p937
aVPine Wood Apts
p938
aVPine Wood Apartment
p939
aVKrystal Apartment
p940
aVParesh Nivas
p941
aVRA Regency
p942
aVArunodaya Nest
p943
aVSoubhagya Apts
p944
aVSoubhagya Apartment
p945
aVMalnad Castle
p946
aVSky Lark Residency
p947
aVRamya Regent
p948
aVVars Ville
p949
aVTall of Partha
p950
aVBhoomi Paradise
p951
aVPriyanka Complex
p952
aVTeam Sara
p953
aVGreen View Apartment
p954
aVBhairavi Dhrupad
p955
aVAkruti Akshaya
p956
aVTeam Topaz Apartment
p957
aVPimento Apartment
p958
aVMantri Paradise
p959
aVBhanu Residency 2nd
p960
aVPeace Cottage
p961
aVI Life Apartment
p962
aVMana Charisma
p963
aVLakeside Heights Apartment
p964
aVMini Villa Apartment
p965
aVGateway Park
p966
aVVanshi Eldora Apartment
p967
aVPrashanti Niketan
p968
aVYou Cafe
p969
aVTulip
p970
aVBalaji Residency
p971
aVMathru Sree Village Homes
p972
aVSri Dakshini Apartment
p973
aVSai Apartment
p974
aVChinnu Paradise
p975
aVTR Residency
p976
aVAishwarya Residency
p977
aVTulips Apartment
p978
aVKrishna Arcade
p979
aVSai Krupa Apartment
p980
aVVk Infinity Flats
p981
aVSai Durga Apartment Flats
p982
aVSiva Shakthi Building Flats
p983
aVCitilights Rustique
p984
aVSri Nivas
p985
aVSri Ram Samruddhi
p986
aVSai Mahal
p987
aVFlamingo Exclusive Township
p988
aVGovindam Meghna Home
p989
aVRohan Jharoka 2
p990
aVSri Hari Nilaya
p991
aVPlanet Bliss
p992
aVPrestige Langleigh 2
p993
aVPurva Fountain Square
p994
aVSLS Serenity
p995
aVMahaveer Varna Whitefield
p996
aVVasavi Gold Leaves
p997
aVDurga Rainbow
p998
aVSumadhura Anandam
p999
aVPolice Quarters
p1000
aVITPB Apartment
p1001
aVMaangalya Suryodaya
p1002
aVRohan Vasantha
p1003
aVPalm Meadows
p1004
aVPrakash Pride Apartment
p1005
aVRegent Place Apts
p1006
aVRegent Place Apartment
p1007
aVParamount Raghavendra Apartment
p1008
aVAngarika Apartment
p1009
aVAgasthya Guru Palatia
p1010
aVMIMS Bloomingdale
p1011
aVJai Sri
p1012
aVPioneer Whites Apartment
p1013
aVHimalaya Fountains
p1014
aVAnjaneya Mansion
p1015
aVGSBF Apts
p1016
aVGSBF Apartment
p1017
aVSri Lakshmi Venkateshwara Nilaya
p1018
aVKalpavriksha Residency
p1019
aVVijaya Classic
p1020
aVKaveri Residency
p1021
aVNandini Residency
p1022
aVReva Residency
p1023
aVSundance Apartment
p1024
aVForese Edge
p1025
aVSaptha Girigapdies
p1026
aVDaya Apartment
p1027
aVAshraya 77
p1028
aVComfort Enclave
p1029
aVMahima Apartment
p1030
aVPraveen Nivas
p1031
aVFresh Vijaya Bank Colony
p1032
aVMahaveer Jade
p1033
aVSt Johns Medical College And Hospital Staff Quarters
p1034
aVPariwar Pearl
p1035
aVJMC Symphony Salarpuria
p1036
aVPooja Paras
p1037
aVGreen Skies Blue Forest
p1038
aVViva Apartment
p1039
aVViva Residency
p1040
aVRock Paradise
p1041
aVTransit Living Service Apartment
p1042
aVAmber Woods
p1043
aVResidency Chartered Sanskruthi
p1044
aVSky Lark Zenith
p1045
aVVijaya Enclave Kumardhara
p1046
aVVijaya Bharathi Residency
p1047
aVConcorde Midway City
p1048
aVAditya Vintage
p1049
aVLaxmi Niwas
p1050
aVMahaveer Marvel
p1051
aVManish Priyamvada
p1052
aVArshiya Lake View Residency
p1053
aVRanka Apartment
p1054
aVChestnut
p1055
aVElie Green Woods
p1056
aVLomsa Residency
p1057
aVPrabhavathi Pride
p1058
aVSouparnik
p1059
aVGreen Residency
p1060
aVShakthi Lakshmi Apartment
p1061
aVSuraksha Elegance
p1062
aVSuraksha Jasmine
p1063
a.