(dp0
V
p1
(dp2
I1
I9
ssVweavers
p3
(dp4
I1
I2
ssVxylem
p5
(dp6
I1
I1
ssVkalappa
p7
(dp8
I1
I1
ssVglobal
p9
(dp10
I1
I2
ssVparameshwari
p11
(dp12
I1
I1
ssVanand
p13
(dp14
I1
I2
ssVnaralappa
p15
(dp16
I1
I1
ssVessae
p17
(dp18
I1
I1
ssVmuniyappa
p19
(dp20
I1
I1
ssVkirana
p21
(dp22
I1
I1
ssVkeerthi
p23
(dp24
I1
I1
ssVapartment
p25
(dp26
I0
I5
ssVkaverinagar
p27
(dp28
I0
I1
ssVshewta
p29
(dp30
I1
I1
ssVvenkatacharya
p31
(dp32
I1
I1
ssVvenkatapp
p33
(dp34
I1
I1
ssVsurya
p35
(dp36
I1
I2
ssVhealth
p37
(dp38
I1
I1
ssVrangaswamy
p39
(dp40
I1
I1
ssVpride
p41
(dp42
I0
I1
sI1
I1
ssVbrigade
p43
(dp44
I1
I2
ssVg7
p45
(dp46
I0
I1
ssVwaverly
p47
(dp48
I1
I1
ssVg5
p49
(dp50
I0
I1
ssVg4
p51
(dp52
I0
I1
ssVg3
p53
(dp54
I0
I1
ssVgarden
p55
(dp56
I0
I11
sI1
I1
ssVadvantage
p57
(dp58
I1
I1
ssVdhobi
p59
(dp60
I1
I1
ssVnovel
p61
(dp62
I1
I1
ssVapmc
p63
(dp64
I1
I1
ssVtulasiram
p65
(dp66
I1
I1
ssVveerannana
p67
(dp68
I1
I1
ssVdevayani
p69
(dp70
I1
I1
ssVcmc
p71
(dp72
I1
I1
ssVmm
p73
(dp74
I1
I1
ssVsmall
p75
(dp76
I1
I1
ssVcmr
p77
(dp78
I1
I2
ssVlogistics
p79
(dp80
I1
I1
ssVngef
p81
(dp82
I1
I2
ssVbrindavannagar
p83
(dp84
I0
I1
ssVnanjappa
p85
(dp86
I1
I1
ssVdefence
p87
(dp88
I1
I1
ssVbda
p89
(dp90
I1
I17
ssVpower
p91
(dp92
I1
I1
ssVgardens
p93
(dp94
I0
I1
ssVhallmark
p95
(dp96
I0
I1
ssVaccess
p97
(dp98
I0
I1
ssVvysya
p99
(dp100
I1
I3
ssVmicrochip
p101
(dp102
I1
I1
ssVmottappa
p103
(dp104
I1
I1
ssVrachita
p105
(dp106
I1
I1
ssVcommercial
p107
(dp108
I1
I1
ssVleo
p109
(dp110
I1
I1
ssVdca
p111
(dp112
I1
I1
ssVpuria
p113
(dp114
I1
I1
ssVkerepalya
p115
(dp116
I0
I1
ssVmuniveerappa
p117
(dp118
I1
I1
ssVmetro
p119
(dp120
I1
I1
ssVsjr
p121
(dp122
I1
I1
ssVakr
p123
(dp124
I1
I1
ssVemployees
p125
(dp126
I1
I4
ssVmarappa
p127
(dp128
I1
I1
ssVgolden
p129
(dp130
I1
I2
ssVrammaiyah
p131
(dp132
I1
I1
ssVgururaja
p133
(dp134
I1
I1
ssVdodanna
p135
(dp136
I1
I1
ssVpanchadeep
p137
(dp138
I1
I1
ssVsantosh
p139
(dp140
I1
I2
ssVmunikalappa
p141
(dp142
I1
I1
ssV1st
p143
(dp144
I1
I2
ssVpushpagiri
p145
(dp146
I1
I1
ssVtotal
p147
(dp148
I1
I1
ssVmarket
p149
(dp150
I0
I1
sI1
I1
ssVvivekanandanagar
p151
(dp152
I0
I1
ssVbenaka
p153
(dp154
I1
I1
ssVsalarpura
p155
(dp156
I1
I1
ssVsimhadri
p157
(dp158
I1
I1
ssVhospital
p159
(dp160
I1
I1
ssVarogya
p161
(dp162
I1
I2
ssVsports
p163
(dp164
I1
I1
ssVchs
p165
(dp166
I0
I2
ssV6
p167
(dp168
I0
I5
sI1
I4
ssVjubilant
p169
(dp170
I1
I1
ssVmukambika
p171
(dp172
I1
I1
ssVdiamond
p173
(dp174
I1
I2
ssVobelisk
p175
(dp176
I0
I1
ssVbyrasandra
p177
(dp178
I0
I1
ssVvijaya
p179
(dp180
I1
I1
ssVsvr
p181
(dp182
I1
I1
ssVarakere
p183
(dp184
I0
I1
ssVvm
p185
(dp186
I1
I1
ssVtg
p187
(dp188
I1
I1
ssVcentral
p189
(dp190
I1
I3
ssVshetty
p191
(dp192
I1
I1
ssVkashi
p193
(dp194
I1
I1
ssVmg
p195
(dp196
I1
I2
ssVmytri
p197
(dp198
I1
I1
ssVg
p199
(dp200
I1
I1
ssVramana
p201
(dp202
I1
I2
ssVyelenahalli
p203
(dp204
I0
I1
ssVmegamart
p205
(dp206
I1
I1
ssVdivya
p207
(dp208
I1
I1
ssVarunachalam
p209
(dp210
I1
I1
ssVsalar
p211
(dp212
I1
I1
ssVmall
p213
(dp214
I0
I17
ssVsolitaire
p215
(dp216
I0
I1
ssVakshayanagara
p217
(dp218
I1
I1
ssVanjanappa
p219
(dp220
I1
I1
ssVplaza
p221
(dp222
I0
I4
ssVestate
p223
(dp224
I0
I4
sI1
I1
ssVparvathi
p225
(dp226
I1
I1
ssVgowda
p227
(dp228
I1
I2
ssVmatinee
p229
(dp230
I1
I1
ssVkhadi
p231
(dp232
I1
I1
ssVmuninaraynappa
p233
(dp234
I1
I1
ssVnetra
p235
(dp236
I1
I1
ssVg2
p237
(dp238
I0
I1
ssVmunivenkatappa
p239
(dp240
I1
I2
ssVmfar
p241
(dp242
I1
I1
ssVhanumanth
p243
(dp244
I1
I1
ssVcourt
p245
(dp246
I0
I1
ssVramakka
p247
(dp248
I1
I1
ssVvinobha
p249
(dp250
I1
I1
ssVshree
p251
(dp252
I1
I2
ssV1
p253
(dp254
I0
I28
sI1
I10
ssVwriters
p255
(dp256
I1
I1
ssVforest
p257
(dp258
I1
I1
ssVkariyappa
p259
(dp260
I1
I1
ssVittamadu
p261
(dp262
I0
I1
ssVdhara
p263
(dp264
I1
I1
ssVlal
p265
(dp266
I1
I3
ssVlido
p267
(dp268
I1
I1
ssVsrt
p269
(dp270
I1
I1
ssVsignature
p271
(dp272
I1
I1
ssVinfotech
p273
(dp274
I1
I1
ssVkkmp
p275
(dp276
I1
I1
ssVnandani
p277
(dp278
I1
I1
ssVshakthi
p279
(dp280
I1
I1
ssVsns
p281
(dp282
I1
I1
ssVmestripalya
p283
(dp284
I0
I1
ssVcambridge
p285
(dp286
I1
I1
ssVmak
p287
(dp288
I1
I1
ssVa
p289
(dp290
I0
I5
sI1
I4
ssVvayu
p291
(dp292
I1
I1
ssVsr
p293
(dp294
I1
I1
ssVdivyasree
p295
(dp296
I1
I1
ssVgreen
p297
(dp298
I0
I1
sI1
I1
ssVroad
p299
(dp300
I1
I1
ssVjantha
p301
(dp302
I1
I1
ssVgef
p303
(dp304
I1
I1
ssVoffice
p305
(dp306
I1
I1
ssViti
p307
(dp308
I1
I3
ssVitc
p309
(dp310
I1
I2
ssVvanganahalli
p311
(dp312
I0
I1
ssVembassy
p313
(dp314
I1
I1
ssVsampangappa
p315
(dp316
I1
I1
ssVmuniswappa
p317
(dp318
I1
I1
ssVavenue
p319
(dp320
I0
I1
ssVpolice
p321
(dp322
I1
I1
ssVannaiah
p323
(dp324
I1
I1
ssVnarasimaiah
p325
(dp326
I1
I1
ssVdisoveror
p327
(dp328
I0
I1
ssVguda
p329
(dp330
I0
I1
ssVkalyani
p331
(dp332
I1
I1
ssVgalleria
p333
(dp334
I0
I1
ssVsannaki
p335
(dp336
I1
I1
ssVmaruthi
p337
(dp338
I1
I5
ssVcompound
p339
(dp340
I0
I1
sI1
I1
ssVoxford
p341
(dp342
I1
I1
ssVsouza
p343
(dp344
I1
I1
ssVtownship
p345
(dp346
I1
I1
ssVsobha
p347
(dp348
I1
I1
ssVbank
p349
(dp350
I1
I7
ssVakash
p351
(dp352
I1
I1
ssVbahadur
p353
(dp354
I1
I2
ssVakashnagar
p355
(dp356
I0
I1
ssVjivanahalli
p357
(dp358
I0
I1
ssVbayalu
p359
(dp360
I0
I1
ssVtechsquare
p361
(dp362
I0
I1
ssVbyregowda
p363
(dp364
I1
I1
ssVdurga
p365
(dp366
I1
I1
ssVsquare
p367
(dp368
I0
I4
sI1
I1
ssVneil
p369
(dp370
I1
I1
ssVhouse
p371
(dp372
I0
I1
ssVpilla
p373
(dp374
I1
I1
ssVanandnagar
p375
(dp376
I0
I1
ssVhanumanthaiah
p377
(dp378
I1
I1
ssVchandrashekaran
p379
(dp380
I1
I1
ssVnandagokula
p381
(dp382
I1
I1
ssVjamuna
p383
(dp384
I1
I1
ssVrr
p385
(dp386
I1
I1
ssVp
p387
(dp388
I1
I1
ssVsmt
p389
(dp390
I1
I1
ssVfactory
p391
(dp392
I1
I1
ssVsilverline
p393
(dp394
I1
I1
ssVsafety
p395
(dp396
I1
I2
ssVhill
p397
(dp398
I1
I1
ssV7
p399
(dp400
I0
I2
sI1
I1
ssVgourments
p401
(dp402
I0
I1
ssVbws
p403
(dp404
I1
I1
ssVast
p405
(dp406
I1
I1
ssVkrishnananda
p407
(dp408
I1
I1
ssVgaruda
p409
(dp410
I1
I1
ssValankar
p411
(dp412
I1
I1
ssVnti
p413
(dp414
I1
I1
ssVtechno
p415
(dp416
I1
I2
ssVbrooke
p417
(dp418
I1
I1
ssVkamala
p419
(dp420
I1
I1
ssVleela
p421
(dp422
I1
I1
ssVsbm
p423
(dp424
I1
I2
ssVvenkateshwara
p425
(dp426
I1
I2
ssVjabbar
p427
(dp428
I1
I1
ssVpoojari
p429
(dp430
I1
I1
ssVarea
p431
(dp432
I0
I3
ssVoakyard
p433
(dp434
I1
I1
ssVsilicon
p435
(dp436
I1
I1
ssVvinayaka
p437
(dp438
I1
I2
ssVpanchsheel
p439
(dp440
I1
I1
ssVstone
p441
(dp442
I0
I1
ssVmuneshwara
p443
(dp444
I1
I1
ssVindustrial
p445
(dp446
I1
I7
ssVrangappa
p447
(dp448
I1
I1
ssVmukambikanagar
p449
(dp450
I0
I1
ssVmittal
p451
(dp452
I1
I1
ssVhebron
p453
(dp454
I0
I2
ssVvivekananda
p455
(dp456
I1
I1
ssVequinox
p457
(dp458
I0
I1
sI1
I1
ssVheights
p459
(dp460
I1
I1
ssVelectronic
p461
(dp462
I1
I1
ssVgeorge
p463
(dp464
I1
I1
ssVradhika
p465
(dp466
I1
I1
ssVcity
p467
(dp468
I0
I1
sI1
I3
ssVsurveys
p469
(dp470
I1
I1
ssVjooganahalli
p471
(dp472
I0
I1
ssVdistrict
p473
(dp474
I1
I1
ssVvigneshwara
p475
(dp476
I1
I1
ssVnethravathi
p477
(dp478
I1
I1
ssV1a
p479
(dp480
I0
I1
ssV2
p481
(dp482
I0
I37
sI1
I10
ssVanjineyalu
p483
(dp484
I1
I1
ssVvenkatappa
p485
(dp486
I1
I1
ssVpark
p487
(dp488
I0
I34
sI1
I3
ssVdoctors
p489
(dp490
I1
I1
ssVsomeshwara
p491
(dp492
I1
I1
ssVsalarpuria
p493
(dp494
I1
I6
ssVinventor
p495
(dp496
I0
I1
ssV11
p497
(dp498
I0
I2
sI1
I1
ssV10
p499
(dp500
I0
I1
sI1
I1
ssV13
p501
(dp502
I0
I1
ssVb
p503
(dp504
I0
I6
sI1
I2
ssV14
p505
(dp506
I0
I1
ssVnarasamma
p507
(dp508
I1
I1
ssVvishwamurthi
p509
(dp510
I1
I2
ssVprasanna
p511
(dp512
I1
I1
ssVhampi
p513
(dp514
I1
I1
ssVgoldhill
p515
(dp516
I1
I1
ssVboggarans
p517
(dp518
I1
I1
ssVthirumala
p519
(dp520
I1
I5
ssVsiddeswara
p521
(dp522
I1
I1
ssVbirangi
p523
(dp524
I1
I1
ssVlbs
p525
(dp526
I1
I1
ssVrahja
p527
(dp528
I1
I1
ssVrao
p529
(dp530
I1
I1
ssVmodern
p531
(dp532
I1
I1
ssVhanuma
p533
(dp534
I1
I1
ssVmedows
p535
(dp536
I0
I1
ssVchowdeswari
p537
(dp538
I1
I1
ssVbasaveshwara
p539
(dp540
I1
I1
ssVsrinivasaiah
p541
(dp542
I1
I1
ssVofficers
p543
(dp544
I1
I1
ssVchinana
p545
(dp546
I1
I1
ssVnew
p547
(dp548
I1
I1
ssVrhcs
p549
(dp550
I1
I2
ssVsoap
p551
(dp552
I1
I1
ssVhrbr
p553
(dp554
I1
I1
ssVanjanapura
p555
(dp556
I1
I1
ssVcentre
p557
(dp558
I0
I6
ssVniketan
p559
(dp560
I1
I1
ssVjss
p561
(dp562
I1
I1
ssVphase
p563
(dp564
I0
I2
sI1
I26
ssValpha
p565
(dp566
I0
I1
sI1
I2
ssVprestige
p567
(dp568
I1
I7
ssVindiqube
p569
(dp570
I1
I1
ssVindustial
p571
(dp572
I1
I1
ssVkk
p573
(dp574
I1
I1
ssVm
p575
(dp576
I1
I2
ssVkm
p577
(dp578
I1
I1
ssVwing
p579
(dp580
I0
I1
ssVkr
p581
(dp582
I1
I1
ssVkrishnaiah
p583
(dp584
I1
I1
ssVtech
p585
(dp586
I1
I18
ssVindl
p587
(dp588
I1
I1
ssVthimmaiya
p589
(dp590
I1
I1
ssVreserve
p591
(dp592
I1
I2
ssVsector
p593
(dp594
I1
I3
ssVsrinivasanagar
p595
(dp596
I0
I1
ssVraghavendra
p597
(dp598
I1
I1
ssVbhel
p599
(dp600
I1
I1
ssVlotus
p601
(dp602
I1
I1
ssVbadani
p603
(dp604
I1
I1
ssVsyndicate
p605
(dp606
I1
I1
ssVhillside
p607
(dp608
I1
I1
ssVjawannagar
p609
(dp610
I0
I1
ssVstaff
p611
(dp612
I1
I1
ssVchikkanna
p613
(dp614
I1
I1
ssVlayout
p615
(dp616
I0
I126
sI1
I5
ssVknowledge
p617
(dp618
I1
I1
ssVmanzil
p619
(dp620
I0
I1
ssVsapthagiri
p621
(dp622
I1
I1
ssVswagath
p623
(dp624
I1
I1
ssVjal
p625
(dp626
I1
I1
ssVlibra
p627
(dp628
I0
I1
ssVjai
p629
(dp630
I1
I2
ssVnhcs
p631
(dp632
I1
I1
ssV8
p633
(dp634
I0
I1
sI1
I1
ssVmuni
p635
(dp636
I1
I1
ssVbanashankari
p637
(dp638
I0
I1
ssVdattatreyanagar
p639
(dp640
I0
I1
ssV12
p641
(dp642
I0
I1
sI1
I1
ssVssi
p643
(dp644
I1
I2
ssVsecon
p645
(dp646
I1
I1
ssVhig
p647
(dp648
I1
I1
ssVmahanagara
p649
(dp650
I1
I1
ssVgem
p651
(dp652
I1
I1
ssVkrishna
p653
(dp654
I1
I2
ssVguddadahalli
p655
(dp656
I0
I1
ssVgajendra
p657
(dp658
I1
I1
ssVbay
p659
(dp660
I1
I1
ssVvinigappa
p661
(dp662
I1
I2
ssVbalaji
p663
(dp664
I1
I5
ssVpapajan
p665
(dp666
I1
I1
ssVbayarappa
p667
(dp668
I1
I1
ssVbhawani
p669
(dp670
I1
I1
ssVjakkasandra
p671
(dp672
I1
I1
ssVview
p673
(dp674
I1
I1
ssVrmv
p675
(dp676
I1
I2
ssVrmz
p677
(dp678
I1
I2
ssVmuniswamappa
p679
(dp680
I1
I3
ssVmeg
p681
(dp682
I1
I2
ssVvishya
p683
(dp684
I1
I1
ssVmurthi
p685
(dp686
I1
I1
ssVprofressional
p687
(dp688
I1
I1
ssVmaharaja
p689
(dp690
I1
I1
ssVchambers
p691
(dp692
I0
I3
ssVmurthy
p693
(dp694
I1
I2
ssVdlf
p695
(dp696
I1
I1
ssVgodda
p697
(dp698
I1
I1
ssVhulkul
p699
(dp700
I0
I1
ssVshiva
p701
(dp702
I1
I2
ssVmaruti
p703
(dp704
I1
I1
ssVpragathi
p705
(dp706
I1
I1
ssV3
p707
(dp708
I0
I12
sI1
I4
ssVdiscovery
p709
(dp710
I1
I1
ssVchinappa
p711
(dp712
I1
I1
ssVrajeev
p713
(dp714
I1
I1
ssVreliaable
p715
(dp716
I1
I1
ssVkeb
p717
(dp718
I1
I2
ssVpkr
p719
(dp720
I1
I1
ssVc
p721
(dp722
I0
I1
sI1
I1
ssVpalike
p723
(dp724
I1
I1
ssVpalya
p725
(dp726
I0
I1
ssVopal
p727
(dp728
I1
I1
ssVtalasila
p729
(dp730
I1
I1
ssVramgopal
p731
(dp732
I1
I1
ssVmahadevpura
p733
(dp734
I0
I2
ssVresidency
p735
(dp736
I0
I1
ssVanjaneya
p737
(dp738
I1
I1
ssVrailway
p739
(dp740
I1
I4
ssVramnagar
p741
(dp742
I0
I1
ssVbagalur
p743
(dp744
I1
I1
ssVecospace
p745
(dp746
I1
I1
ssVrajaji
p747
(dp748
I1
I1
ssVkalyan
p749
(dp750
I1
I4
ssVcolony
p751
(dp752
I0
I26
sI1
I1
ssVsai
p753
(dp754
I1
I2
ssV2nd
p755
(dp756
I1
I1
ssVmarappanapalya
p757
(dp758
I0
I1
ssVlaxmi
p759
(dp760
I1
I1
ssVappajappa
p761
(dp762
I1
I1
ssVkempegowda
p763
(dp764
I1
I2
ssVprasad
p765
(dp766
I1
I1
ssVraheja
p767
(dp768
I0
I1
ssVgrand
p769
(dp770
I1
I1
ssVbbh
p771
(dp772
I1
I1
ssVabdul
p773
(dp774
I1
I2
ssVnurses
p775
(dp776
I1
I1
ssVbengaluru
p777
(dp778
I1
I1
ssVclny
p779
(dp780
I1
I8
ssVph
p781
(dp782
I1
I1
ssVgauripuram
p783
(dp784
I1
I1
ssVcitadel
p785
(dp786
I0
I1
ssVshopping
p787
(dp788
I1
I7
ssVkunte
p789
(dp790
I1
I1
ssVeastern
p791
(dp792
I1
I1
ssVhmt
p793
(dp794
I1
I2
ssVvana
p795
(dp796
I0
I1
ssVgubbanna
p797
(dp798
I1
I1
ssVcessena
p799
(dp800
I1
I1
ssVodyssey
p801
(dp802
I1
I1
ssVharidas
p803
(dp804
I1
I1
ssVbyrappa
p805
(dp806
I1
I1
ssVmla
p807
(dp808
I1
I3
ssVsethna
p809
(dp810
I1
I1
ssVrichmond
p811
(dp812
I1
I1
ssVteachers
p813
(dp814
I1
I2
ssVrbi
p815
(dp816
I1
I1
ssVshanti
p817
(dp818
I1
I3
ssVk
p819
(dp820
I1
I2
ssVkrimson
p821
(dp822
I1
I1
ssVnitesh
p823
(dp824
I1
I1
ssVvb
p825
(dp826
I1
I1
ssVabbaiyappa
p827
(dp828
I1
I1
ssVreddy
p829
(dp830
I1
I5
ssVcentury
p831
(dp832
I0
I1
ssVit
p833
(dp834
I1
I5
ssVmanjunatha
p835
(dp836
I1
I2
ssVbhadra
p837
(dp838
I1
I1
ssVvr
p839
(dp840
I1
I1
ssVsyed
p841
(dp842
I1
I1
ssVtechnology
p843
(dp844
I1
I2
ssVtranquil
p845
(dp846
I1
I1
ssVpathfinder
p847
(dp848
I1
I1
ssVerrappa
p849
(dp850
I1
I1
ssVgovernment
p851
(dp852
I1
I2
ssVharita
p853
(dp854
I1
I1
ssVunity
p855
(dp856
I1
I1
ssVcomplex
p857
(dp858
I0
I33
ssVenclave
p859
(dp860
I0
I2
sI1
I1
ssVews
p861
(dp862
I1
I1
ssVsamson
p863
(dp864
I1
I1
ssVachaiah
p865
(dp866
I1
I1
ssVgurudutta
p867
(dp868
I1
I1
ssVecoworld
p869
(dp870
I0
I1
ssVsudarshan
p871
(dp872
I1
I1
ssVkamakya
p873
(dp874
I1
I1
ssVgarlic
p875
(dp876
I1
I1
ssVsaide
p877
(dp878
I1
I1
ssVvaishnavi
p879
(dp880
I1
I4
ssVsqure
p881
(dp882
I1
I1
ssVescorts
p883
(dp884
I1
I1
ssVumiya
p885
(dp886
I1
I1
ssVraghuvanapalya
p887
(dp888
I0
I1
ssVnagarbhavi
p889
(dp890
I1
I1
ssVjawan
p891
(dp892
I1
I1
ssVkempe
p893
(dp894
I1
I1
ssVthe
p895
(dp896
I1
I1
ssVparadigh
p897
(dp898
I0
I1
ssVvakil
p899
(dp900
I1
I1
ssVexcise
p901
(dp902
I1
I2
ssVkalidasa
p903
(dp904
I1
I1
ssVquarters
p905
(dp906
I0
I12
ssVsoulspace
p907
(dp908
I1
I1
ssVtouch
p909
(dp910
I1
I1
ssVpatel
p911
(dp912
I1
I2
ssVnayanappa
p913
(dp914
I1
I1
ssVhirachandra
p915
(dp916
I1
I1
ssVgopalam
p917
(dp918
I1
I1
ssVgopalan
p919
(dp920
I1
I3
ssVgomas
p921
(dp922
I1
I1
ssV4
p923
(dp924
I0
I6
sI1
I2
ssVdivyashree
p925
(dp926
I1
I1
ssVkaveri
p927
(dp928
I1
I1
ssVeast
p929
(dp930
I0
I2
sI1
I1
ssVsmart
p931
(dp932
I1
I1
ssVbanaswadi
p933
(dp934
I0
I1
ssVkrishnanandanagar
p935
(dp936
I0
I1
ssVbhoruka
p937
(dp938
I1
I1
ssVkumarradhara
p939
(dp940
I1
I1
ssVramaiah
p941
(dp942
I1
I3
ssVnanda
p943
(dp944
I1
I1
ssVfortuna
p945
(dp946
I1
I1
ssVannapurneshwarinagar
p947
(dp948
I0
I1
ssVsonangi
p949
(dp950
I1
I1
ssVmanay
p951
(dp952
I1
I1
ssVfortune
p953
(dp954
I0
I1
ssVd
p955
(dp956
I0
I1
sI1
I2
ssVkusal
p957
(dp958
I1
I1
ssVozone
p959
(dp960
I1
I1
ssVmahalakshmi
p961
(dp962
I0
I1
ssVt
p963
(dp964
I1
I1
ssVtower
p965
(dp966
I0
I8
sI1
I3
ssVvenkatacharynagar
p967
(dp968
I0
I1
ssVkaval
p969
(dp970
I0
I1
ssVhandanappa
p971
(dp972
I1
I1
ssVrajnish
p973
(dp974
I1
I1
ssVashram
p975
(dp976
I1
I1
ssVapartments
p977
(dp978
I0
I1
ssVnagar
p979
(dp980
I0
I50
sI1
I9
ssVlakshmiamma
p981
(dp982
I1
I1
ssVescape
p983
(dp984
I1
I1
ssVfiled
p985
(dp986
I1
I1
ssVsetty
p987
(dp988
I1
I1
ssVtenchnology
p989
(dp990
I1
I1
ssVscale
p991
(dp992
I1
I1
ssVhebbal
p993
(dp994
I0
I1
ssVshastri
p995
(dp996
I1
I1
ssVpioneer
p997
(dp998
I1
I1
ssVkalyannagar
p999
(dp1000
I1
I2
ssVkrishnappa
p1001
(dp1002
I1
I2
ssVfeatherlite
p1003
(dp1004
I1
I1
ssVgarkamantapalya
p1005
(dp1006
I0
I1
ssVrsti
p1007
(dp1008
I0
I1
ssVesi
p1009
(dp1010
I1
I1
ssVraghavendranagar
p1011
(dp1012
I0
I1
ssVbusiness
p1013
(dp1014
I1
I4
ssVbm
p1015
(dp1016
I1
I1
ssVsampannppa
p1017
(dp1018
I1
I1
ssVterraces
p1019
(dp1020
I0
I1
ssVvenkataswamy
p1021
(dp1022
I1
I1
ssVharishta
p1023
(dp1024
I1
I1
ssVchola
p1025
(dp1026
I1
I1
ssVgangamma
p1027
(dp1028
I1
I1
ssVstage
p1029
(dp1030
I0
I2
sI1
I21
ssVpipeline
p1031
(dp1032
I1
I2
ssVeastland
p1033
(dp1034
I1
I1
ssVextension
p1035
(dp1036
I0
I1
sI1
I2
ssVof
p1037
(dp1038
I1
I1
ssVsri
p1039
(dp1040
I1
I10
ssVsennappa
p1041
(dp1042
I1
I1
ssVsrng
p1043
(dp1044
I1
I1
ssVshankarappa
p1045
(dp1046
I1
I1
ssVacs
p1047
(dp1048
I1
I1
ssVranga
p1049
(dp1050
I1
I2
ssVwest
p1051
(dp1052
I1
I1
ssVsbb
p1053
(dp1054
I1
I1
ssVparangipalya
p1055
(dp1056
I0
I1
ssVblock
p1057
(dp1058
I0
I38
sI1
I83
ssVakshaya
p1059
(dp1060
I1
I6
ssVcoupon
p1061
(dp1062
I1
I1
ssVhou
p1063
(dp1064
I1
I1
ssVtejas
p1065
(dp1066
I1
I1
ssVghat
p1067
(dp1068
I0
I1
ssVsaptagiri
p1069
(dp1070
I1
I1
ssVaccounts
p1071
(dp1072
I1
I1
ssVsubramanya
p1073
(dp1074
I1
I3
ssVsathya
p1075
(dp1076
I1
I1
ssVmaharishi
p1077
(dp1078
I1
I1
ssVtifr
p1079
(dp1080
I0
I1
ssVjubilee
p1081
(dp1082
I1
I1
ssVsattva
p1083
(dp1084
I1
I1
ssVarcade
p1085
(dp1086
I0
I7
sI1
I1
ssVhalli
p1087
(dp1088
I0
I1
ssVhousing
p1089
(dp1090
I1
I2
ssVnarang
p1091
(dp1092
I1
I1
ssVheritage
p1093
(dp1094
I1
I1
ssVgovindaraj
p1095
(dp1096
I1
I1
ssVbuilding
p1097
(dp1098
I0
I8
ssVmsh
p1099
(dp1100
I1
I1
ssVmico
p1101
(dp1102
I1
I3
ssVpwd
p1103
(dp1104
I1
I1
ssVsagar
p1105
(dp1106
I0
I1
ssVnewtown
p1107
(dp1108
I0
I1
ssVhm
p1109
(dp1110
I1
I1
ssVbeech
p1111
(dp1112
I1
I1
ssVnarayanappa
p1113
(dp1114
I1
I1
ssVgattigere
p1115
(dp1116
I1
I1
ssVlingappa
p1117
(dp1118
I1
I1
ssVanjappa
p1119
(dp1120
I1
I1
ssVvenkateshappa
p1121
(dp1122
I1
I1
ssVsapphire
p1123
(dp1124
I1
I1
ssVflats
p1125
(dp1126
I0
I1
ssVjenakal
p1127
(dp1128
I1
I1
ssVbrindavan
p1129
(dp1130
I1
I1
ssVtouchstone
p1131
(dp1132
I0
I1
ssVrajareshwari
p1133
(dp1134
I1
I1
ssVsupreme
p1135
(dp1136
I0
I1
ssVketamaranahalli
p1137
(dp1138
I0
I1
ssVpanduram
p1139
(dp1140
I1
I1
ssVgeneral
p1141
(dp1142
I1
I1
ssVajmera
p1143
(dp1144
I1
I1
ssVmarlabs
p1145
(dp1146
I0
I1
ssVmarutinagar
p1147
(dp1148
I0
I1
ssVkhb
p1149
(dp1150
I1
I2
ssVakshayanagar
p1151
(dp1152
I1
I2
ssVnabard
p1153
(dp1154
I1
I1
ssVjalamandala
p1155
(dp1156
I1
I1
ssVcoconut
p1157
(dp1158
I1
I1
ssVvista
p1159
(dp1160
I0
I1
ssVascendas
p1161
(dp1162
I1
I1
ssVdattatreya
p1163
(dp1164
I1
I1
ssVnal
p1165
(dp1166
I1
I1
ssVtowers
p1167
(dp1168
I0
I9
ssV5
p1169
(dp1170
I0
I4
sI1
I4
ssVmanipal
p1171
(dp1172
I1
I1
ssVsatge
p1173
(dp1174
I1
I1
ssVchaudappa
p1175
(dp1176
I1
I1
ssVdwarka
p1177
(dp1178
I1
I1
ssVstar
p1179
(dp1180
I0
I1
ssVphoenix
p1181
(dp1182
I1
I1
ssVchikkamunivenkatappa
p1183
(dp1184
I1
I1
ssVlottegollahalli
p1185
(dp1186
I1
I2
ssVhanumanthappa
p1187
(dp1188
I1
I1
ssVvertex
p1189
(dp1190
I1
I1
ssVcauvery
p1191
(dp1192
I1
I1
ssVjagadish
p1193
(dp1194
I1
I1
ssVvinayakanagar
p1195
(dp1196
I0
I1
ssVthangiah
p1197
(dp1198
I1
I1
ssVchikka
p1199
(dp1200
I1
I2
ssVfriends
p1201
(dp1202
I1
I1
ssVpool
p1203
(dp1204
I1
I1
ssVharishtanagar
p1205
(dp1206
I0
I1
ssVe
p1207
(dp1208
I0
I2
sI1
I2
ssVraghavappa
p1209
(dp1210
I1
I1
ssViehcs
p1211
(dp1212
I1
I1
ssVcholanagar
p1213
(dp1214
I0
I1
ssVbcc
p1215
(dp1216
I1
I1
ssVepip
p1217
(dp1218
I1
I1
ssVbahadurnagar
p1219
(dp1220
I0
I1
ssVsummit
p1221
(dp1222
I0
I1
ssVveerappa
p1223
(dp1224
I1
I1
ssVbhubneshwari
p1225
(dp1226
I1
I1
ssVtime
p1227
(dp1228
I1
I1
ssVoracle
p1229
(dp1230
I1
I1
ssVags
p1231
(dp1232
I1
I1
ssVtechnopolis
p1233
(dp1234
I0
I1
ss.